
test:     file format elf64-x86-64


Disassembly of section .init:

0000000000401000 <_init>:
  401000:	50                   	push   %rax
  401001:	58                   	pop    %rax
  401002:	c3                   	ret

Disassembly of section .text:

0000000000401040 <exit>:
  401040:	53                   	push   %rbx
  401041:	89 fb                	mov    %edi,%ebx
  401043:	e8 c4 03 00 00       	call   40140c <__funcs_on_exit>
  401048:	e8 c0 03 00 00       	call   40140d <__libc_exit_fini>
  40104d:	31 c0                	xor    %eax,%eax
  40104f:	e8 1e 39 00 00       	call   404972 <__stdio_exit>
  401054:	89 df                	mov    %ebx,%edi
  401056:	e8 6d 30 00 00       	call   4040c8 <_Exit>

000000000040105b <main>:
  40105b:	50                   	push   %rax
  40105c:	48 8d 3d 9d 3f 00 00 	lea    0x3f9d(%rip),%rdi        # 405000 <_fini+0x38d>
  401063:	e8 95 04 00 00       	call   4014fd <puts>
  401068:	48 8d 3d 9d 3f 00 00 	lea    0x3f9d(%rip),%rdi        # 40500c <_fini+0x399>
  40106f:	e8 89 04 00 00       	call   4014fd <puts>
  401074:	6a 01                	push   $0x1
  401076:	5f                   	pop    %rdi
  401077:	e8 57 2c 00 00       	call   403cd3 <sleep>
  40107c:	48 8b 35 85 5f 00 00 	mov    0x5f85(%rip),%rsi        # 407008 <x>
  401083:	48 8d 3d 8f 3f 00 00 	lea    0x3f8f(%rip),%rdi        # 405019 <_fini+0x3a6>
  40108a:	31 c0                	xor    %eax,%eax
  40108c:	e8 ac 03 00 00       	call   40143d <printf>
  401091:	31 c0                	xor    %eax,%eax
  401093:	5a                   	pop    %rdx
  401094:	c3                   	ret

0000000000401095 <_start>:
  401095:	48 31 ed             	xor    %rbp,%rbp
  401098:	48 89 e7             	mov    %rsp,%rdi
  40109b:	48 8d 35 5e ef bf ff 	lea    -0x4010a2(%rip),%rsi        # 0 <_init-0x401000>
  4010a2:	48 83 e4 f0          	and    $0xfffffffffffffff0,%rsp
  4010a6:	e8 00 00 00 00       	call   4010ab <_start_c>

00000000004010ab <_start_c>:
  4010ab:	8b 37                	mov    (%rdi),%esi
  4010ad:	48 8d 57 08          	lea    0x8(%rdi),%rdx
  4010b1:	49 c7 c0 73 4c 40 00 	mov    $0x404c73,%r8
  4010b8:	45 31 c9             	xor    %r9d,%r9d
  4010bb:	48 c7 c1 00 10 40 00 	mov    $0x401000,%rcx
  4010c2:	48 c7 c7 5b 10 40 00 	mov    $0x40105b,%rdi
  4010c9:	e9 0c 03 00 00       	jmp    4013da <__libc_start_main>
  4010ce:	66 90                	xchg   %ax,%ax
  4010d0:	48 8d 3d 39 60 00 00 	lea    0x6039(%rip),%rdi        # 407110 <__TMC_END__>
  4010d7:	48 8d 05 32 60 00 00 	lea    0x6032(%rip),%rax        # 407110 <__TMC_END__>
  4010de:	48 39 f8             	cmp    %rdi,%rax
  4010e1:	74 15                	je     4010f8 <_start_c+0x4d>
  4010e3:	48 c7 c0 00 00 00 00 	mov    $0x0,%rax
  4010ea:	48 85 c0             	test   %rax,%rax
  4010ed:	74 09                	je     4010f8 <_start_c+0x4d>
  4010ef:	ff e0                	jmp    *%rax
  4010f1:	0f 1f 80 00 00 00 00 	nopl   0x0(%rax)
  4010f8:	c3                   	ret
  4010f9:	0f 1f 80 00 00 00 00 	nopl   0x0(%rax)
  401100:	48 8d 3d 09 60 00 00 	lea    0x6009(%rip),%rdi        # 407110 <__TMC_END__>
  401107:	48 8d 35 02 60 00 00 	lea    0x6002(%rip),%rsi        # 407110 <__TMC_END__>
  40110e:	48 29 fe             	sub    %rdi,%rsi
  401111:	48 89 f0             	mov    %rsi,%rax
  401114:	48 c1 ee 3f          	shr    $0x3f,%rsi
  401118:	48 c1 f8 03          	sar    $0x3,%rax
  40111c:	48 01 c6             	add    %rax,%rsi
  40111f:	48 d1 fe             	sar    %rsi
  401122:	74 14                	je     401138 <_start_c+0x8d>
  401124:	48 c7 c0 00 00 00 00 	mov    $0x0,%rax
  40112b:	48 85 c0             	test   %rax,%rax
  40112e:	74 08                	je     401138 <_start_c+0x8d>
  401130:	ff e0                	jmp    *%rax
  401132:	66 0f 1f 44 00 00    	nopw   0x0(%rax,%rax,1)
  401138:	c3                   	ret
  401139:	0f 1f 80 00 00 00 00 	nopl   0x0(%rax)
  401140:	f3 0f 1e fa          	endbr64
  401144:	80 3d d5 5f 00 00 00 	cmpb   $0x0,0x5fd5(%rip)        # 407120 <__bss_start>
  40114b:	75 33                	jne    401180 <_start_c+0xd5>
  40114d:	55                   	push   %rbp
  40114e:	48 83 3d 8a 5e 00 00 	cmpq   $0x0,0x5e8a(%rip)        # 406fe0 <__stdio_ofl_lockptr+0x8>
  401155:	00 
  401156:	48 89 e5             	mov    %rsp,%rbp
  401159:	74 0d                	je     401168 <_start_c+0xbd>
  40115b:	48 8b 3d 9e 5e 00 00 	mov    0x5e9e(%rip),%rdi        # 407000 <__dso_handle>
  401162:	67 e8 98 ee bf ff    	addr32 call 0 <_init-0x401000>
  401168:	e8 63 ff ff ff       	call   4010d0 <_start_c+0x25>
  40116d:	c6 05 ac 5f 00 00 01 	movb   $0x1,0x5fac(%rip)        # 407120 <__bss_start>
  401174:	5d                   	pop    %rbp
  401175:	c3                   	ret
  401176:	66 2e 0f 1f 84 00 00 	cs nopw 0x0(%rax,%rax,1)
  40117d:	00 00 00 
  401180:	c3                   	ret
  401181:	66 66 2e 0f 1f 84 00 	data16 cs nopw 0x0(%rax,%rax,1)
  401188:	00 00 00 00 
  40118c:	0f 1f 40 00          	nopl   0x0(%rax)
  401190:	f3 0f 1e fa          	endbr64
  401194:	e9 67 ff ff ff       	jmp    401100 <_start_c+0x55>

0000000000401199 <dummy>:
  401199:	c3                   	ret

000000000040119a <dummy1>:
  40119a:	c3                   	ret
  40119b:	0f 1f 44 00 00       	nopl   0x0(%rax,%rax,1)

00000000004011a0 <__init_libc>:
  4011a0:	48 81 ec 58 01 00 00 	sub    $0x158,%rsp
  4011a7:	49 89 f8             	mov    %rdi,%r8
  4011aa:	31 c0                	xor    %eax,%eax
  4011ac:	48 89 f2             	mov    %rsi,%rdx
  4011af:	4c 8d 4c 24 20       	lea    0x20(%rsp),%r9
  4011b4:	b9 26 00 00 00       	mov    $0x26,%ecx
  4011b9:	4c 89 cf             	mov    %r9,%rdi
  4011bc:	f3 48 ab             	rep stos %rax,%es:(%rdi)
  4011bf:	48 c7 c0 e8 75 40 00 	mov    $0x4075e8,%rax
  4011c6:	4c 89 00             	mov    %r8,(%rax)
  4011c9:	31 c0                	xor    %eax,%eax
  4011cb:	0f 1f 44 00 00       	nopl   0x0(%rax,%rax,1)
  4011d0:	49 8b 0c c0          	mov    (%r8,%rax,8),%rcx
  4011d4:	48 83 c0 01          	add    $0x1,%rax
  4011d8:	48 85 c9             	test   %rcx,%rcx
  4011db:	75 f3                	jne    4011d0 <__init_libc+0x30>
  4011dd:	49 8d 04 c0          	lea    (%r8,%rax,8),%rax
  4011e1:	48 89 05 80 5f 00 00 	mov    %rax,0x5f80(%rip)        # 407168 <__libc+0x8>
  4011e8:	eb 1a                	jmp    401204 <__init_libc+0x64>
  4011ea:	66 66 2e 0f 1f 84 00 	data16 cs nopw 0x0(%rax,%rax,1)
  4011f1:	00 00 00 00 
  4011f5:	66 66 2e 0f 1f 84 00 	data16 cs nopw 0x0(%rax,%rax,1)
  4011fc:	00 00 00 00 
  401200:	48 83 c0 10          	add    $0x10,%rax
  401204:	48 8b 08             	mov    (%rax),%rcx
  401207:	48 85 c9             	test   %rcx,%rcx
  40120a:	74 11                	je     40121d <__init_libc+0x7d>
  40120c:	48 83 f9 25          	cmp    $0x25,%rcx
  401210:	77 ee                	ja     401200 <__init_libc+0x60>
  401212:	48 8b 70 08          	mov    0x8(%rax),%rsi
  401216:	48 89 74 cc 20       	mov    %rsi,0x20(%rsp,%rcx,8)
  40121b:	eb e3                	jmp    401200 <__init_libc+0x60>
  40121d:	48 8b 84 24 a0 00 00 	mov    0xa0(%rsp),%rax
  401224:	00 
  401225:	48 89 05 14 5f 00 00 	mov    %rax,0x5f14(%rip)        # 407140 <__hwcap>
  40122c:	48 8b 84 24 20 01 00 	mov    0x120(%rsp),%rax
  401233:	00 
  401234:	48 85 c0             	test   %rax,%rax
  401237:	74 07                	je     401240 <__init_libc+0xa0>
  401239:	48 89 05 e8 5e 00 00 	mov    %rax,0x5ee8(%rip)        # 407128 <__sysinfo>
  401240:	48 8b 44 24 50       	mov    0x50(%rsp),%rax
  401245:	48 89 05 44 5f 00 00 	mov    %rax,0x5f44(%rip)        # 407190 <__libc+0x30>
  40124c:	48 85 d2             	test   %rdx,%rdx
  40124f:	74 1a                	je     40126b <__init_libc+0xcb>
  401251:	48 c7 c0 30 71 40 00 	mov    $0x407130,%rax
  401258:	48 c7 c1 38 71 40 00 	mov    $0x407138,%rcx
  40125f:	48 89 10             	mov    %rdx,(%rax)
  401262:	48 8d 42 01          	lea    0x1(%rdx),%rax
  401266:	48 89 11             	mov    %rdx,(%rcx)
  401269:	eb 39                	jmp    4012a4 <__init_libc+0x104>
  40126b:	48 8b 84 24 18 01 00 	mov    0x118(%rsp),%rax
  401272:	00 
  401273:	48 8d 15 b1 3d 00 00 	lea    0x3db1(%rip),%rdx        # 40502b <_fini+0x3b8>
  40127a:	48 85 c0             	test   %rax,%rax
  40127d:	48 0f 45 d0          	cmovne %rax,%rdx
  401281:	eb ce                	jmp    401251 <__init_libc+0xb1>
  401283:	66 66 2e 0f 1f 84 00 	data16 cs nopw 0x0(%rax,%rax,1)
  40128a:	00 00 00 00 
  40128e:	66 66 2e 0f 1f 84 00 	data16 cs nopw 0x0(%rax,%rax,1)
  401295:	00 00 00 00 
  401299:	0f 1f 80 00 00 00 00 	nopl   0x0(%rax)
  4012a0:	48 83 c0 01          	add    $0x1,%rax
  4012a4:	0f b6 50 ff          	movzbl -0x1(%rax),%edx
  4012a8:	84 d2                	test   %dl,%dl
  4012aa:	74 0a                	je     4012b6 <__init_libc+0x116>
  4012ac:	80 fa 2f             	cmp    $0x2f,%dl
  4012af:	75 ef                	jne    4012a0 <__init_libc+0x100>
  4012b1:	48 89 01             	mov    %rax,(%rcx)
  4012b4:	eb ea                	jmp    4012a0 <__init_libc+0x100>
  4012b6:	4c 89 cf             	mov    %r9,%rdi
  4012b9:	e8 82 2b 00 00       	call   403e40 <__init_tls>
  4012be:	48 8b bc 24 e8 00 00 	mov    0xe8(%rsp),%rdi
  4012c5:	00 
  4012c6:	e8 66 2d 00 00       	call   404031 <__init_ssp>
  4012cb:	48 8b 84 24 80 00 00 	mov    0x80(%rsp),%rax
  4012d2:	00 
  4012d3:	48 39 44 24 78       	cmp    %rax,0x78(%rsp)
  4012d8:	74 52                	je     40132c <__init_libc+0x18c>
  4012da:	66 0f ef c0          	pxor   %xmm0,%xmm0
  4012de:	48 89 e7             	mov    %rsp,%rdi
  4012e1:	b8 07 00 00 00       	mov    $0x7,%eax
  4012e6:	31 d2                	xor    %edx,%edx
  4012e8:	48 c7 44 24 10 00 00 	movq   $0x0,0x10(%rsp)
  4012ef:	00 00 
  4012f1:	be 03 00 00 00       	mov    $0x3,%esi
  4012f6:	0f 29 04 24          	movaps %xmm0,(%rsp)
  4012fa:	c7 44 24 10 02 00 00 	movl   $0x2,0x10(%rsp)
  401301:	00 
  401302:	c7 44 24 08 01 00 00 	movl   $0x1,0x8(%rsp)
  401309:	00 
  40130a:	0f 05                	syscall
  40130c:	85 c0                	test   %eax,%eax
  40130e:	78 3b                	js     40134b <__init_libc+0x1ab>
  401310:	48 89 fa             	mov    %rdi,%rdx
  401313:	4c 8d 44 24 18       	lea    0x18(%rsp),%r8
  401318:	41 b9 02 00 00 00    	mov    $0x2,%r9d
  40131e:	be 02 80 00 00       	mov    $0x8002,%esi
  401323:	48 8d 3d 02 3d 00 00 	lea    0x3d02(%rip),%rdi        # 40502c <_fini+0x3b9>
  40132a:	eb 2d                	jmp    401359 <__init_libc+0x1b9>
  40132c:	48 8b 84 24 90 00 00 	mov    0x90(%rsp),%rax
  401333:	00 
  401334:	48 39 84 24 88 00 00 	cmp    %rax,0x88(%rsp)
  40133b:	00 
  40133c:	75 9c                	jne    4012da <__init_libc+0x13a>
  40133e:	48 83 bc 24 d8 00 00 	cmpq   $0x0,0xd8(%rsp)
  401345:	00 00 
  401347:	75 91                	jne    4012da <__init_libc+0x13a>
  401349:	eb 28                	jmp    401373 <__init_libc+0x1d3>
  40134b:	f4                   	hlt
  40134c:	eb c2                	jmp    401310 <__init_libc+0x170>
  40134e:	66 90                	xchg   %ax,%ax
  401350:	48 83 c2 08          	add    $0x8,%rdx
  401354:	4c 39 c2             	cmp    %r8,%rdx
  401357:	74 13                	je     40136c <__init_libc+0x1cc>
  401359:	f6 42 06 20          	testb  $0x20,0x6(%rdx)
  40135d:	74 f1                	je     401350 <__init_libc+0x1b0>
  40135f:	4c 89 c8             	mov    %r9,%rax
  401362:	0f 05                	syscall
  401364:	48 85 c0             	test   %rax,%rax
  401367:	79 e7                	jns    401350 <__init_libc+0x1b0>
  401369:	f4                   	hlt
  40136a:	eb e4                	jmp    401350 <__init_libc+0x1b0>
  40136c:	c6 05 ef 5d 00 00 01 	movb   $0x1,0x5def(%rip)        # 407162 <__libc+0x2>
  401373:	48 81 c4 58 01 00 00 	add    $0x158,%rsp
  40137a:	c3                   	ret

000000000040137b <__libc_start_init>:
  40137b:	55                   	push   %rbp
  40137c:	53                   	push   %rbx
  40137d:	48 83 ec 08          	sub    $0x8,%rsp
  401381:	e8 7a fc ff ff       	call   401000 <_init>
  401386:	48 c7 c3 c0 6f 40 00 	mov    $0x406fc0,%rbx
  40138d:	48 c7 c5 c8 6f 40 00 	mov    $0x406fc8,%rbp
  401394:	eb 06                	jmp    40139c <__libc_start_init+0x21>
  401396:	ff 13                	call   *(%rbx)
  401398:	48 83 c3 08          	add    $0x8,%rbx
  40139c:	48 39 eb             	cmp    %rbp,%rbx
  40139f:	72 f5                	jb     401396 <__libc_start_init+0x1b>
  4013a1:	48 83 c4 08          	add    $0x8,%rsp
  4013a5:	5b                   	pop    %rbx
  4013a6:	5d                   	pop    %rbp
  4013a7:	c3                   	ret

00000000004013a8 <libc_start_main_stage2>:
  4013a8:	41 55                	push   %r13
  4013aa:	48 63 c6             	movslq %esi,%rax
  4013ad:	41 54                	push   %r12
  4013af:	4c 8d 6c c2 08       	lea    0x8(%rdx,%rax,8),%r13
  4013b4:	49 89 fc             	mov    %rdi,%r12
  4013b7:	55                   	push   %rbp
  4013b8:	48 89 d5             	mov    %rdx,%rbp
  4013bb:	53                   	push   %rbx
  4013bc:	48 89 c3             	mov    %rax,%rbx
  4013bf:	48 83 ec 08          	sub    $0x8,%rsp
  4013c3:	e8 b3 ff ff ff       	call   40137b <__libc_start_init>
  4013c8:	89 df                	mov    %ebx,%edi
  4013ca:	4c 89 ea             	mov    %r13,%rdx
  4013cd:	48 89 ee             	mov    %rbp,%rsi
  4013d0:	41 ff d4             	call   *%r12
  4013d3:	89 c7                	mov    %eax,%edi
  4013d5:	e8 66 fc ff ff       	call   401040 <exit>

00000000004013da <__libc_start_main>:
  4013da:	41 54                	push   %r12
  4013dc:	48 63 c6             	movslq %esi,%rax
  4013df:	49 89 fc             	mov    %rdi,%r12
  4013e2:	55                   	push   %rbp
  4013e3:	48 8d 7c c2 08       	lea    0x8(%rdx,%rax,8),%rdi
  4013e8:	48 89 c5             	mov    %rax,%rbp
  4013eb:	53                   	push   %rbx
  4013ec:	48 8b 32             	mov    (%rdx),%rsi
  4013ef:	48 89 d3             	mov    %rdx,%rbx
  4013f2:	e8 a9 fd ff ff       	call   4011a0 <__init_libc>
  4013f7:	48 89 da             	mov    %rbx,%rdx
  4013fa:	89 ee                	mov    %ebp,%esi
  4013fc:	4c 89 e7             	mov    %r12,%rdi
  4013ff:	48 8d 05 a2 ff ff ff 	lea    -0x5e(%rip),%rax        # 4013a8 <libc_start_main_stage2>
  401406:	5b                   	pop    %rbx
  401407:	5d                   	pop    %rbp
  401408:	41 5c                	pop    %r12
  40140a:	ff e0                	jmp    *%rax

000000000040140c <__funcs_on_exit>:
  40140c:	c3                   	ret

000000000040140d <__libc_exit_fini>:
  40140d:	55                   	push   %rbp
  40140e:	53                   	push   %rbx
  40140f:	48 83 ec 08          	sub    $0x8,%rsp
  401413:	48 c7 c3 d0 6f 40 00 	mov    $0x406fd0,%rbx
  40141a:	48 c7 c5 c8 6f 40 00 	mov    $0x406fc8,%rbp
  401421:	eb 08                	jmp    40142b <__libc_exit_fini+0x1e>
  401423:	48 83 eb 08          	sub    $0x8,%rbx
  401427:	31 c0                	xor    %eax,%eax
  401429:	ff 13                	call   *(%rbx)
  40142b:	48 39 dd             	cmp    %rbx,%rbp
  40142e:	72 f3                	jb     401423 <__libc_exit_fini+0x16>
  401430:	48 83 c4 08          	add    $0x8,%rsp
  401434:	31 c0                	xor    %eax,%eax
  401436:	5b                   	pop    %rbx
  401437:	5d                   	pop    %rbp
  401438:	e9 36 38 00 00       	jmp    404c73 <_fini>

000000000040143d <printf>:
  40143d:	48 81 ec d8 00 00 00 	sub    $0xd8,%rsp
  401444:	48 89 74 24 28       	mov    %rsi,0x28(%rsp)
  401449:	48 89 54 24 30       	mov    %rdx,0x30(%rsp)
  40144e:	48 89 4c 24 38       	mov    %rcx,0x38(%rsp)
  401453:	4c 89 44 24 40       	mov    %r8,0x40(%rsp)
  401458:	4c 89 4c 24 48       	mov    %r9,0x48(%rsp)
  40145d:	84 c0                	test   %al,%al
  40145f:	74 37                	je     401498 <printf+0x5b>
  401461:	0f 29 44 24 50       	movaps %xmm0,0x50(%rsp)
  401466:	0f 29 4c 24 60       	movaps %xmm1,0x60(%rsp)
  40146b:	0f 29 54 24 70       	movaps %xmm2,0x70(%rsp)
  401470:	0f 29 9c 24 80 00 00 	movaps %xmm3,0x80(%rsp)
  401477:	00 
  401478:	0f 29 a4 24 90 00 00 	movaps %xmm4,0x90(%rsp)
  40147f:	00 
  401480:	0f 29 ac 24 a0 00 00 	movaps %xmm5,0xa0(%rsp)
  401487:	00 
  401488:	0f 29 b4 24 b0 00 00 	movaps %xmm6,0xb0(%rsp)
  40148f:	00 
  401490:	0f 29 bc 24 c0 00 00 	movaps %xmm7,0xc0(%rsp)
  401497:	00 
  401498:	64 48 8b 04 25 28 00 	mov    %fs:0x28,%rax
  40149f:	00 00 
  4014a1:	48 89 44 24 18       	mov    %rax,0x18(%rsp)
  4014a6:	31 c0                	xor    %eax,%eax
  4014a8:	48 8d 84 24 e0 00 00 	lea    0xe0(%rsp),%rax
  4014af:	00 
  4014b0:	48 89 e2             	mov    %rsp,%rdx
  4014b3:	48 89 fe             	mov    %rdi,%rsi
  4014b6:	48 89 44 24 08       	mov    %rax,0x8(%rsp)
  4014bb:	48 8d 3d 5e 5b 00 00 	lea    0x5b5e(%rip),%rdi        # 407020 <__stdout_FILE>
  4014c2:	48 8d 44 24 20       	lea    0x20(%rsp),%rax
  4014c7:	c7 04 24 08 00 00 00 	movl   $0x8,(%rsp)
  4014ce:	c7 44 24 04 30 00 00 	movl   $0x30,0x4(%rsp)
  4014d5:	00 
  4014d6:	48 89 44 24 10       	mov    %rax,0x10(%rsp)
  4014db:	e8 15 25 00 00       	call   4039f5 <vfprintf>
  4014e0:	48 8b 54 24 18       	mov    0x18(%rsp),%rdx
  4014e5:	64 48 2b 14 25 28 00 	sub    %fs:0x28,%rdx
  4014ec:	00 00 
  4014ee:	75 08                	jne    4014f8 <printf+0xbb>
  4014f0:	48 81 c4 d8 00 00 00 	add    $0xd8,%rsp
  4014f7:	c3                   	ret
  4014f8:	e8 7a 2b 00 00       	call   404077 <__stack_chk_fail>

00000000004014fd <puts>:
  4014fd:	8b 05 a9 5b 00 00    	mov    0x5ba9(%rip),%eax        # 4070ac <__stdout_FILE+0x8c>
  401503:	41 54                	push   %r12
  401505:	55                   	push   %rbp
  401506:	48 8d 2d 13 5b 00 00 	lea    0x5b13(%rip),%rbp        # 407020 <__stdout_FILE>
  40150d:	53                   	push   %rbx
  40150e:	48 89 fb             	mov    %rdi,%rbx
  401511:	85 c0                	test   %eax,%eax
  401513:	79 49                	jns    40155e <puts+0x61>
  401515:	48 89 ee             	mov    %rbp,%rsi
  401518:	bb ff ff ff ff       	mov    $0xffffffff,%ebx
  40151d:	45 31 e4             	xor    %r12d,%r12d
  401520:	e8 3e 2f 00 00       	call   404463 <fputs>
  401525:	85 c0                	test   %eax,%eax
  401527:	78 2e                	js     401557 <puts+0x5a>
  401529:	83 3d 80 5b 00 00 0a 	cmpl   $0xa,0x5b80(%rip)        # 4070b0 <__stdout_FILE+0x90>
  401530:	74 4d                	je     40157f <puts+0x82>
  401532:	48 8b 05 0f 5b 00 00 	mov    0x5b0f(%rip),%rax        # 407048 <__stdout_FILE+0x28>
  401539:	48 3b 05 00 5b 00 00 	cmp    0x5b00(%rip),%rax        # 407040 <__stdout_FILE+0x20>
  401540:	74 3d                	je     40157f <puts+0x82>
  401542:	48 8d 50 01          	lea    0x1(%rax),%rdx
  401546:	31 db                	xor    %ebx,%ebx
  401548:	48 89 15 f9 5a 00 00 	mov    %rdx,0x5af9(%rip)        # 407048 <__stdout_FILE+0x28>
  40154f:	c6 00 0a             	movb   $0xa,(%rax)
  401552:	45 85 e4             	test   %r12d,%r12d
  401555:	75 3c                	jne    401593 <puts+0x96>
  401557:	89 d8                	mov    %ebx,%eax
  401559:	5b                   	pop    %rbx
  40155a:	5d                   	pop    %rbp
  40155b:	41 5c                	pop    %r12
  40155d:	c3                   	ret
  40155e:	48 89 ef             	mov    %rbp,%rdi
  401561:	e8 91 2c 00 00       	call   4041f7 <__lockfile>
  401566:	48 89 df             	mov    %rbx,%rdi
  401569:	48 89 ee             	mov    %rbp,%rsi
  40156c:	bb ff ff ff ff       	mov    $0xffffffff,%ebx
  401571:	41 89 c4             	mov    %eax,%r12d
  401574:	e8 ea 2e 00 00       	call   404463 <fputs>
  401579:	85 c0                	test   %eax,%eax
  40157b:	79 ac                	jns    401529 <puts+0x2c>
  40157d:	eb d3                	jmp    401552 <puts+0x55>
  40157f:	be 0a 00 00 00       	mov    $0xa,%esi
  401584:	48 89 ef             	mov    %rbp,%rdi
  401587:	e8 4b 2d 00 00       	call   4042d7 <__overflow>
  40158c:	c1 f8 1f             	sar    $0x1f,%eax
  40158f:	89 c3                	mov    %eax,%ebx
  401591:	eb bf                	jmp    401552 <puts+0x55>
  401593:	48 89 ef             	mov    %rbp,%rdi
  401596:	e8 fc 2c 00 00       	call   404297 <__unlockfile>
  40159b:	eb ba                	jmp    401557 <puts+0x5a>

000000000040159d <pop_arg>:
  40159d:	83 ee 09             	sub    $0x9,%esi
  4015a0:	48 89 d0             	mov    %rdx,%rax
  4015a3:	83 fe 11             	cmp    $0x11,%esi
  4015a6:	0f 87 64 01 00 00    	ja     401710 <pop_arg+0x173>
  4015ac:	48 8d 0d b9 3a 00 00 	lea    0x3ab9(%rip),%rcx        # 40506c <_fini+0x3f9>
  4015b3:	48 63 14 b1          	movslq (%rcx,%rsi,4),%rdx
  4015b7:	48 01 ca             	add    %rcx,%rdx
  4015ba:	ff e2                	jmp    *%rdx
  4015bc:	8b 10                	mov    (%rax),%edx
  4015be:	83 fa 2f             	cmp    $0x2f,%edx
  4015c1:	77 12                	ja     4015d5 <pop_arg+0x38>
  4015c3:	89 d1                	mov    %edx,%ecx
  4015c5:	83 c2 08             	add    $0x8,%edx
  4015c8:	48 03 48 10          	add    0x10(%rax),%rcx
  4015cc:	89 10                	mov    %edx,(%rax)
  4015ce:	48 63 01             	movslq (%rcx),%rax
  4015d1:	48 89 07             	mov    %rax,(%rdi)
  4015d4:	c3                   	ret
  4015d5:	48 8b 48 08          	mov    0x8(%rax),%rcx
  4015d9:	48 8d 51 08          	lea    0x8(%rcx),%rdx
  4015dd:	48 89 50 08          	mov    %rdx,0x8(%rax)
  4015e1:	eb eb                	jmp    4015ce <pop_arg+0x31>
  4015e3:	8b 10                	mov    (%rax),%edx
  4015e5:	83 fa 2f             	cmp    $0x2f,%edx
  4015e8:	77 11                	ja     4015fb <pop_arg+0x5e>
  4015ea:	89 d1                	mov    %edx,%ecx
  4015ec:	83 c2 08             	add    $0x8,%edx
  4015ef:	48 03 48 10          	add    0x10(%rax),%rcx
  4015f3:	89 10                	mov    %edx,(%rax)
  4015f5:	8b 01                	mov    (%rcx),%eax
  4015f7:	48 89 07             	mov    %rax,(%rdi)
  4015fa:	c3                   	ret
  4015fb:	48 8b 48 08          	mov    0x8(%rax),%rcx
  4015ff:	48 8d 51 08          	lea    0x8(%rcx),%rdx
  401603:	48 89 50 08          	mov    %rdx,0x8(%rax)
  401607:	eb ec                	jmp    4015f5 <pop_arg+0x58>
  401609:	8b 10                	mov    (%rax),%edx
  40160b:	83 fa 2f             	cmp    $0x2f,%edx
  40160e:	77 13                	ja     401623 <pop_arg+0x86>
  401610:	89 d1                	mov    %edx,%ecx
  401612:	83 c2 08             	add    $0x8,%edx
  401615:	48 03 48 10          	add    0x10(%rax),%rcx
  401619:	89 10                	mov    %edx,(%rax)
  40161b:	48 0f bf 01          	movswq (%rcx),%rax
  40161f:	48 89 07             	mov    %rax,(%rdi)
  401622:	c3                   	ret
  401623:	48 8b 48 08          	mov    0x8(%rax),%rcx
  401627:	48 8d 51 08          	lea    0x8(%rcx),%rdx
  40162b:	48 89 50 08          	mov    %rdx,0x8(%rax)
  40162f:	eb ea                	jmp    40161b <pop_arg+0x7e>
  401631:	8b 10                	mov    (%rax),%edx
  401633:	83 fa 2f             	cmp    $0x2f,%edx
  401636:	77 12                	ja     40164a <pop_arg+0xad>
  401638:	89 d1                	mov    %edx,%ecx
  40163a:	83 c2 08             	add    $0x8,%edx
  40163d:	48 03 48 10          	add    0x10(%rax),%rcx
  401641:	89 10                	mov    %edx,(%rax)
  401643:	0f b7 01             	movzwl (%rcx),%eax
  401646:	48 89 07             	mov    %rax,(%rdi)
  401649:	c3                   	ret
  40164a:	48 8b 48 08          	mov    0x8(%rax),%rcx
  40164e:	48 8d 51 08          	lea    0x8(%rcx),%rdx
  401652:	48 89 50 08          	mov    %rdx,0x8(%rax)
  401656:	eb eb                	jmp    401643 <pop_arg+0xa6>
  401658:	8b 10                	mov    (%rax),%edx
  40165a:	83 fa 2f             	cmp    $0x2f,%edx
  40165d:	77 13                	ja     401672 <pop_arg+0xd5>
  40165f:	89 d1                	mov    %edx,%ecx
  401661:	83 c2 08             	add    $0x8,%edx
  401664:	48 03 48 10          	add    0x10(%rax),%rcx
  401668:	89 10                	mov    %edx,(%rax)
  40166a:	48 0f be 01          	movsbq (%rcx),%rax
  40166e:	48 89 07             	mov    %rax,(%rdi)
  401671:	c3                   	ret
  401672:	48 8b 48 08          	mov    0x8(%rax),%rcx
  401676:	48 8d 51 08          	lea    0x8(%rcx),%rdx
  40167a:	48 89 50 08          	mov    %rdx,0x8(%rax)
  40167e:	eb ea                	jmp    40166a <pop_arg+0xcd>
  401680:	8b 10                	mov    (%rax),%edx
  401682:	83 fa 2f             	cmp    $0x2f,%edx
  401685:	77 12                	ja     401699 <pop_arg+0xfc>
  401687:	89 d1                	mov    %edx,%ecx
  401689:	83 c2 08             	add    $0x8,%edx
  40168c:	48 03 48 10          	add    0x10(%rax),%rcx
  401690:	89 10                	mov    %edx,(%rax)
  401692:	0f b6 01             	movzbl (%rcx),%eax
  401695:	48 89 07             	mov    %rax,(%rdi)
  401698:	c3                   	ret
  401699:	48 8b 48 08          	mov    0x8(%rax),%rcx
  40169d:	48 8d 51 08          	lea    0x8(%rcx),%rdx
  4016a1:	48 89 50 08          	mov    %rdx,0x8(%rax)
  4016a5:	eb eb                	jmp    401692 <pop_arg+0xf5>
  4016a7:	8b 10                	mov    (%rax),%edx
  4016a9:	83 fa 2f             	cmp    $0x2f,%edx
  4016ac:	77 12                	ja     4016c0 <pop_arg+0x123>
  4016ae:	89 d1                	mov    %edx,%ecx
  4016b0:	83 c2 08             	add    $0x8,%edx
  4016b3:	48 03 48 10          	add    0x10(%rax),%rcx
  4016b7:	89 10                	mov    %edx,(%rax)
  4016b9:	48 8b 01             	mov    (%rcx),%rax
  4016bc:	48 89 07             	mov    %rax,(%rdi)
  4016bf:	c3                   	ret
  4016c0:	48 8b 48 08          	mov    0x8(%rax),%rcx
  4016c4:	48 8d 51 08          	lea    0x8(%rcx),%rdx
  4016c8:	48 89 50 08          	mov    %rdx,0x8(%rax)
  4016cc:	eb eb                	jmp    4016b9 <pop_arg+0x11c>
  4016ce:	8b 50 04             	mov    0x4(%rax),%edx
  4016d1:	81 fa af 00 00 00    	cmp    $0xaf,%edx
  4016d7:	77 11                	ja     4016ea <pop_arg+0x14d>
  4016d9:	89 d1                	mov    %edx,%ecx
  4016db:	83 c2 10             	add    $0x10,%edx
  4016de:	48 03 48 10          	add    0x10(%rax),%rcx
  4016e2:	89 50 04             	mov    %edx,0x4(%rax)
  4016e5:	dd 01                	fldl   (%rcx)
  4016e7:	db 3f                	fstpt  (%rdi)
  4016e9:	c3                   	ret
  4016ea:	48 8b 48 08          	mov    0x8(%rax),%rcx
  4016ee:	48 8d 51 08          	lea    0x8(%rcx),%rdx
  4016f2:	48 89 50 08          	mov    %rdx,0x8(%rax)
  4016f6:	eb ed                	jmp    4016e5 <pop_arg+0x148>
  4016f8:	48 8b 48 08          	mov    0x8(%rax),%rcx
  4016fc:	48 8d 51 0f          	lea    0xf(%rcx),%rdx
  401700:	48 83 e2 f0          	and    $0xfffffffffffffff0,%rdx
  401704:	48 8d 4a 10          	lea    0x10(%rdx),%rcx
  401708:	48 89 48 08          	mov    %rcx,0x8(%rax)
  40170c:	db 2a                	fldt   (%rdx)
  40170e:	db 3f                	fstpt  (%rdi)
  401710:	c3                   	ret
  401711:	66 2e 0f 1f 84 00 00 	cs nopw 0x0(%rax,%rax,1)
  401718:	00 00 00 
  40171b:	0f 1f 44 00 00       	nopl   0x0(%rax,%rax,1)

0000000000401720 <pad.part.0>:
  401720:	41 55                	push   %r13
  401722:	29 ca                	sub    %ecx,%edx
  401724:	40 0f be f6          	movsbl %sil,%esi
  401728:	41 54                	push   %r12
  40172a:	4c 63 e2             	movslq %edx,%r12
  40172d:	ba 00 01 00 00       	mov    $0x100,%edx
  401732:	55                   	push   %rbp
  401733:	53                   	push   %rbx
  401734:	44 89 e3             	mov    %r12d,%ebx
  401737:	48 81 ec 18 01 00 00 	sub    $0x118,%rsp
  40173e:	41 39 d4             	cmp    %edx,%r12d
  401741:	64 48 8b 2c 25 28 00 	mov    %fs:0x28,%rbp
  401748:	00 00 
  40174a:	48 89 ac 24 08 01 00 	mov    %rbp,0x108(%rsp)
  401751:	00 
  401752:	48 89 fd             	mov    %rdi,%rbp
  401755:	49 0f 4e d4          	cmovle %r12,%rdx
  401759:	48 89 e7             	mov    %rsp,%rdi
  40175c:	49 89 e5             	mov    %rsp,%r13
  40175f:	e8 ab 24 00 00       	call   403c0f <memset>
  401764:	8b 55 00             	mov    0x0(%rbp),%edx
  401767:	eb 1d                	jmp    401786 <pad.part.0+0x66>
  401769:	66 66 2e 0f 1f 84 00 	data16 cs nopw 0x0(%rax,%rax,1)
  401770:	00 00 00 00 
  401774:	66 66 2e 0f 1f 84 00 	data16 cs nopw 0x0(%rax,%rax,1)
  40177b:	00 00 00 00 
  40177f:	90                   	nop
  401780:	81 eb 00 01 00 00    	sub    $0x100,%ebx
  401786:	89 d0                	mov    %edx,%eax
  401788:	83 e0 20             	and    $0x20,%eax
  40178b:	81 fb ff 00 00 00    	cmp    $0xff,%ebx
  401791:	76 19                	jbe    4017ac <pad.part.0+0x8c>
  401793:	85 c0                	test   %eax,%eax
  401795:	75 e9                	jne    401780 <pad.part.0+0x60>
  401797:	48 89 ea             	mov    %rbp,%rdx
  40179a:	be 00 01 00 00       	mov    $0x100,%esi
  40179f:	4c 89 ef             	mov    %r13,%rdi
  4017a2:	e8 f9 2c 00 00       	call   4044a0 <__fwritex>
  4017a7:	8b 55 00             	mov    0x0(%rbp),%edx
  4017aa:	eb d4                	jmp    401780 <pad.part.0+0x60>
  4017ac:	85 c0                	test   %eax,%eax
  4017ae:	74 21                	je     4017d1 <pad.part.0+0xb1>
  4017b0:	48 8b 84 24 08 01 00 	mov    0x108(%rsp),%rax
  4017b7:	00 
  4017b8:	64 48 2b 04 25 28 00 	sub    %fs:0x28,%rax
  4017bf:	00 00 
  4017c1:	75 1f                	jne    4017e2 <pad.part.0+0xc2>
  4017c3:	48 81 c4 18 01 00 00 	add    $0x118,%rsp
  4017ca:	5b                   	pop    %rbx
  4017cb:	5d                   	pop    %rbp
  4017cc:	41 5c                	pop    %r12
  4017ce:	41 5d                	pop    %r13
  4017d0:	c3                   	ret
  4017d1:	41 0f b6 f4          	movzbl %r12b,%esi
  4017d5:	48 89 ea             	mov    %rbp,%rdx
  4017d8:	4c 89 ef             	mov    %r13,%rdi
  4017db:	e8 c0 2c 00 00       	call   4044a0 <__fwritex>
  4017e0:	eb ce                	jmp    4017b0 <pad.part.0+0x90>
  4017e2:	e8 90 28 00 00       	call   404077 <__stack_chk_fail>
  4017e7:	66 2e 0f 1f 84 00 00 	cs nopw 0x0(%rax,%rax,1)
  4017ee:	00 00 00 
  4017f1:	66 2e 0f 1f 84 00 00 	cs nopw 0x0(%rax,%rax,1)
  4017f8:	00 00 00 
  4017fb:	0f 1f 44 00 00       	nopl   0x0(%rax,%rax,1)

0000000000401800 <fmt_fp>:
  401800:	41 57                	push   %r15
  401802:	41 56                	push   %r14
  401804:	41 55                	push   %r13
  401806:	49 89 fd             	mov    %rdi,%r13
  401809:	41 54                	push   %r12
  40180b:	41 89 d4             	mov    %edx,%r12d
  40180e:	55                   	push   %rbp
  40180f:	53                   	push   %rbx
  401810:	48 81 ec 48 1d 00 00 	sub    $0x1d48,%rsp
  401817:	89 74 24 14          	mov    %esi,0x14(%rsp)
  40181b:	89 4c 24 10          	mov    %ecx,0x10(%rsp)
  40181f:	44 89 44 24 18       	mov    %r8d,0x18(%rsp)
  401824:	64 48 8b 04 25 28 00 	mov    %fs:0x28,%rax
  40182b:	00 00 
  40182d:	48 89 84 24 38 1d 00 	mov    %rax,0x1d38(%rsp)
  401834:	00 
  401835:	31 c0                	xor    %eax,%eax
  401837:	c7 44 24 4c 00 00 00 	movl   $0x0,0x4c(%rsp)
  40183e:	00 
  40183f:	ff b4 24 88 1d 00 00 	push   0x1d88(%rsp)
  401846:	ff b4 24 88 1d 00 00 	push   0x1d88(%rsp)
  40184d:	e8 fb 28 00 00       	call   40414d <__signbitl>
  401852:	41 5b                	pop    %r11
  401854:	5b                   	pop    %rbx
  401855:	85 c0                	test   %eax,%eax
  401857:	0f 84 c4 00 00 00    	je     401921 <fmt_fp+0x121>
  40185d:	db ac 24 80 1d 00 00 	fldt   0x1d80(%rsp)
  401864:	48 8d 05 cb 37 00 00 	lea    0x37cb(%rip),%rax        # 405036 <_fini+0x3c3>
  40186b:	c7 44 24 20 01 00 00 	movl   $0x1,0x20(%rsp)
  401872:	00 
  401873:	48 89 44 24 28       	mov    %rax,0x28(%rsp)
  401878:	d9 e0                	fchs
  40187a:	db bc 24 80 1d 00 00 	fstpt  0x1d80(%rsp)
  401881:	ff b4 24 88 1d 00 00 	push   0x1d88(%rsp)
  401888:	ff b4 24 88 1d 00 00 	push   0x1d88(%rsp)
  40188f:	e8 6c 28 00 00       	call   404100 <__fpclassifyl>
  401894:	41 59                	pop    %r9
  401896:	41 5a                	pop    %r10
  401898:	83 f8 01             	cmp    $0x1,%eax
  40189b:	0f 8e c1 00 00 00    	jle    401962 <fmt_fp+0x162>
  4018a1:	48 8d 7c 24 4c       	lea    0x4c(%rsp),%rdi
  4018a6:	ff b4 24 88 1d 00 00 	push   0x1d88(%rsp)
  4018ad:	ff b4 24 88 1d 00 00 	push   0x1d88(%rsp)
  4018b4:	e8 a1 28 00 00       	call   40415a <frexpl>
  4018b9:	44 8b 5c 24 28       	mov    0x28(%rsp),%r11d
  4018be:	44 8b 54 24 5c       	mov    0x5c(%rsp),%r10d
  4018c3:	d8 c0                	fadd   %st(0),%st
  4018c5:	5f                   	pop    %rdi
  4018c6:	41 58                	pop    %r8
  4018c8:	41 83 cb 20          	or     $0x20,%r11d
  4018cc:	d9 ee                	fldz
  4018ce:	d9 c9                	fxch   %st(1)
  4018d0:	db e9                	fucomi %st(1),%st
  4018d2:	dd d9                	fstp   %st(1)
  4018d4:	0f 8a 5d 01 00 00    	jp     401a37 <fmt_fp+0x237>
  4018da:	0f 85 57 01 00 00    	jne    401a37 <fmt_fp+0x237>
  4018e0:	41 83 fb 61          	cmp    $0x61,%r11d
  4018e4:	0f 84 2d 02 00 00    	je     401b17 <fmt_fp+0x317>
  4018ea:	45 85 e4             	test   %r12d,%r12d
  4018ed:	0f 88 bd 05 00 00    	js     401eb0 <fmt_fp+0x6b0>
  4018f3:	41 8d 44 24 1d       	lea    0x1d(%r12),%eax
  4018f8:	48 69 c0 39 8e e3 38 	imul   $0x38e38e39,%rax,%rax
  4018ff:	48 c1 e8 21          	shr    $0x21,%rax
  401903:	45 85 e4             	test   %r12d,%r12d
  401906:	4c 8d 70 01          	lea    0x1(%rax),%r14
  40190a:	0f 95 44 24 38       	setne  0x38(%rsp)
  40190f:	4a 8d 04 b5 00 00 00 	lea    0x0(,%r14,4),%rax
  401916:	00 
  401917:	48 89 44 24 08       	mov    %rax,0x8(%rsp)
  40191c:	e9 61 01 00 00       	jmp    401a82 <fmt_fp+0x282>
  401921:	48 8d 05 11 37 00 00 	lea    0x3711(%rip),%rax        # 405039 <_fini+0x3c6>
  401928:	c7 44 24 20 01 00 00 	movl   $0x1,0x20(%rsp)
  40192f:	00 
  401930:	48 89 44 24 28       	mov    %rax,0x28(%rsp)
  401935:	8b 44 24 10          	mov    0x10(%rsp),%eax
  401939:	f6 c4 08             	test   $0x8,%ah
  40193c:	0f 85 3f ff ff ff    	jne    401881 <fmt_fp+0x81>
  401942:	83 e0 01             	and    $0x1,%eax
  401945:	48 8d 15 eb 36 00 00 	lea    0x36eb(%rip),%rdx        # 405037 <_fini+0x3c4>
  40194c:	89 44 24 20          	mov    %eax,0x20(%rsp)
  401950:	48 8d 42 05          	lea    0x5(%rdx),%rax
  401954:	48 0f 44 c2          	cmove  %rdx,%rax
  401958:	48 89 44 24 28       	mov    %rax,0x28(%rsp)
  40195d:	e9 1f ff ff ff       	jmp    401881 <fmt_fp+0x81>
  401962:	f6 44 24 18 20       	testb  $0x20,0x18(%rsp)
  401967:	74 72                	je     4019db <fmt_fp+0x1db>
  401969:	db ac 24 80 1d 00 00 	fldt   0x1d80(%rsp)
  401970:	48 8d 2d da 36 00 00 	lea    0x36da(%rip),%rbp        # 405051 <_fini+0x3de>
  401977:	48 8d 05 d7 36 00 00 	lea    0x36d7(%rip),%rax        # 405055 <_fini+0x3e2>
  40197e:	df e8                	fucomip %st(0),%st
  401980:	48 0f 4b e8          	cmovnp %rax,%rbp
  401984:	8b 44 24 20          	mov    0x20(%rsp),%eax
  401988:	8b 54 24 14          	mov    0x14(%rsp),%edx
  40198c:	8d 58 03             	lea    0x3(%rax),%ebx
  40198f:	39 d3                	cmp    %edx,%ebx
  401991:	41 0f 9d c4          	setge  %r12b
  401995:	f6 44 24 11 20       	testb  $0x20,0x11(%rsp)
  40199a:	75 05                	jne    4019a1 <fmt_fp+0x1a1>
  40199c:	45 84 e4             	test   %r12b,%r12b
  40199f:	74 57                	je     4019f8 <fmt_fp+0x1f8>
  4019a1:	41 f6 45 00 20       	testb  $0x20,0x0(%r13)
  4019a6:	74 61                	je     401a09 <fmt_fp+0x209>
  4019a8:	8b 44 24 10          	mov    0x10(%rsp),%eax
  4019ac:	80 f4 20             	xor    $0x20,%ah
  4019af:	a9 00 20 01 00       	test   $0x12000,%eax
  4019b4:	0f 85 b7 10 00 00    	jne    402a71 <fmt_fp+0x1271>
  4019ba:	45 84 e4             	test   %r12b,%r12b
  4019bd:	0f 85 ae 10 00 00    	jne    402a71 <fmt_fp+0x1271>
  4019c3:	8b 54 24 14          	mov    0x14(%rsp),%edx
  4019c7:	89 d9                	mov    %ebx,%ecx
  4019c9:	be 20 00 00 00       	mov    $0x20,%esi
  4019ce:	4c 89 ef             	mov    %r13,%rdi
  4019d1:	e8 4a fd ff ff       	call   401720 <pad.part.0>
  4019d6:	e9 96 10 00 00       	jmp    402a71 <fmt_fp+0x1271>
  4019db:	db ac 24 80 1d 00 00 	fldt   0x1d80(%rsp)
  4019e2:	48 8d 2d 64 36 00 00 	lea    0x3664(%rip),%rbp        # 40504d <_fini+0x3da>
  4019e9:	48 8d 05 59 36 00 00 	lea    0x3659(%rip),%rax        # 405049 <_fini+0x3d6>
  4019f0:	df e8                	fucomip %st(0),%st
  4019f2:	48 0f 4b e8          	cmovnp %rax,%rbp
  4019f6:	eb 8c                	jmp    401984 <fmt_fp+0x184>
  4019f8:	89 d9                	mov    %ebx,%ecx
  4019fa:	be 20 00 00 00       	mov    $0x20,%esi
  4019ff:	4c 89 ef             	mov    %r13,%rdi
  401a02:	e8 19 fd ff ff       	call   401720 <pad.part.0>
  401a07:	eb 98                	jmp    4019a1 <fmt_fp+0x1a1>
  401a09:	48 63 74 24 20       	movslq 0x20(%rsp),%rsi
  401a0e:	48 8b 7c 24 28       	mov    0x28(%rsp),%rdi
  401a13:	4c 89 ea             	mov    %r13,%rdx
  401a16:	e8 85 2a 00 00       	call   4044a0 <__fwritex>
  401a1b:	41 f6 45 00 20       	testb  $0x20,0x0(%r13)
  401a20:	75 86                	jne    4019a8 <fmt_fp+0x1a8>
  401a22:	4c 89 ea             	mov    %r13,%rdx
  401a25:	be 03 00 00 00       	mov    $0x3,%esi
  401a2a:	48 89 ef             	mov    %rbp,%rdi
  401a2d:	e8 6e 2a 00 00       	call   4044a0 <__fwritex>
  401a32:	e9 71 ff ff ff       	jmp    4019a8 <fmt_fp+0x1a8>
  401a37:	41 83 fb 61          	cmp    $0x61,%r11d
  401a3b:	0f 84 cd 00 00 00    	je     401b0e <fmt_fp+0x30e>
  401a41:	45 85 e4             	test   %r12d,%r12d
  401a44:	0f 88 47 04 00 00    	js     401e91 <fmt_fp+0x691>
  401a4a:	41 8d 44 24 1d       	lea    0x1d(%r12),%eax
  401a4f:	48 69 c0 39 8e e3 38 	imul   $0x38e38e39,%rax,%rax
  401a56:	48 c1 e8 21          	shr    $0x21,%rax
  401a5a:	45 85 e4             	test   %r12d,%r12d
  401a5d:	4c 8d 70 01          	lea    0x1(%rax),%r14
  401a61:	0f 95 44 24 38       	setne  0x38(%rsp)
  401a66:	4a 8d 04 b5 00 00 00 	lea    0x0(,%r14,4),%rax
  401a6d:	00 
  401a6e:	48 89 44 24 08       	mov    %rax,0x8(%rsp)
  401a73:	41 83 ea 1d          	sub    $0x1d,%r10d
  401a77:	d8 0d 47 39 00 00    	fmuls  0x3947(%rip)        # 4053c4 <states+0x1e4>
  401a7d:	44 89 54 24 4c       	mov    %r10d,0x4c(%rsp)
  401a82:	d9 7c 24 3e          	fnstcw 0x3e(%rsp)
  401a86:	45 85 d2             	test   %r10d,%r10d
  401a89:	48 8d 44 24 50       	lea    0x50(%rsp),%rax
  401a8e:	d9 05 34 39 00 00    	flds   0x3934(%rip)        # 4053c8 <states+0x1e8>
  401a94:	48 8d 94 24 f8 1b 00 	lea    0x1bf8(%rsp),%rdx
  401a9b:	00 
  401a9c:	48 0f 49 c2          	cmovns %rdx,%rax
  401aa0:	d9 ee                	fldz
  401aa2:	d9 ca                	fxch   %st(2)
  401aa4:	49 89 c7             	mov    %rax,%r15
  401aa7:	48 89 c3             	mov    %rax,%rbx
  401aaa:	0f b7 44 24 3e       	movzwl 0x3e(%rsp),%eax
  401aaf:	80 cc 0c             	or     $0xc,%ah
  401ab2:	66 89 44 24 3c       	mov    %ax,0x3c(%rsp)
  401ab7:	66 0f 1f 84 00 00 00 	nopw   0x0(%rax,%rax,1)
  401abe:	00 00 
  401ac0:	d9 c0                	fld    %st(0)
  401ac2:	d9 6c 24 3c          	fldcw  0x3c(%rsp)
  401ac6:	df 3c 24             	fistpll (%rsp)
  401ac9:	d9 6c 24 3e          	fldcw  0x3e(%rsp)
  401acd:	48 83 c3 04          	add    $0x4,%rbx
  401ad1:	48 8b 04 24          	mov    (%rsp),%rax
  401ad5:	89 43 fc             	mov    %eax,-0x4(%rbx)
  401ad8:	89 c0                	mov    %eax,%eax
  401ada:	48 89 04 24          	mov    %rax,(%rsp)
  401ade:	df 2c 24             	fildll (%rsp)
  401ae1:	de e9                	fsubrp %st,%st(1)
  401ae3:	d8 c9                	fmul   %st(1),%st
  401ae5:	d9 c2                	fld    %st(2)
  401ae7:	d9 c9                	fxch   %st(1)
  401ae9:	db e9                	fucomi %st(1),%st
  401aeb:	dd d9                	fstp   %st(1)
  401aed:	7a d1                	jp     401ac0 <fmt_fp+0x2c0>
  401aef:	75 cf                	jne    401ac0 <fmt_fp+0x2c0>
  401af1:	dd d8                	fstp   %st(0)
  401af3:	dd d8                	fstp   %st(0)
  401af5:	dd d8                	fstp   %st(0)
  401af7:	45 89 d1             	mov    %r10d,%r9d
  401afa:	4c 89 fd             	mov    %r15,%rbp
  401afd:	31 c0                	xor    %eax,%eax
  401aff:	49 b8 53 5a 9b a0 2f 	movabs $0x44b82fa09b5a53,%r8
  401b06:	b8 44 00 
  401b09:	e9 4a 04 00 00       	jmp    401f58 <fmt_fp+0x758>
  401b0e:	41 83 ea 01          	sub    $0x1,%r10d
  401b12:	44 89 54 24 4c       	mov    %r10d,0x4c(%rsp)
  401b17:	48 8b 5c 24 28       	mov    0x28(%rsp),%rbx
  401b1c:	f6 44 24 18 20       	testb  $0x20,0x18(%rsp)
  401b21:	d9 05 99 38 00 00    	flds   0x3899(%rip)        # 4053c0 <states+0x1e0>
  401b27:	48 8d 43 09          	lea    0x9(%rbx),%rax
  401b2b:	48 0f 44 c3          	cmove  %rbx,%rax
  401b2f:	8b 5c 24 20          	mov    0x20(%rsp),%ebx
  401b33:	48 89 44 24 28       	mov    %rax,0x28(%rsp)
  401b38:	83 c3 02             	add    $0x2,%ebx
  401b3b:	41 83 fc 0e          	cmp    $0xe,%r12d
  401b3f:	77 2c                	ja     401b6d <fmt_fp+0x36d>
  401b41:	b8 0f 00 00 00       	mov    $0xf,%eax
  401b46:	d9 05 64 38 00 00    	flds   0x3864(%rip)        # 4053b0 <states+0x1d0>
  401b4c:	44 29 e0             	sub    %r12d,%eax
  401b4f:	eb 09                	jmp    401b5a <fmt_fp+0x35a>
  401b51:	0f 1f 80 00 00 00 00 	nopl   0x0(%rax)
  401b58:	d8 c9                	fmul   %st(1),%st
  401b5a:	83 e8 01             	sub    $0x1,%eax
  401b5d:	73 f9                	jae    401b58 <fmt_fp+0x358>
  401b5f:	48 8b 44 24 28       	mov    0x28(%rsp),%rax
  401b64:	80 38 2d             	cmpb   $0x2d,(%rax)
  401b67:	74 27                	je     401b90 <fmt_fp+0x390>
  401b69:	dc c2                	fadd   %st,%st(2)
  401b6b:	de ea                	fsubrp %st,%st(2)
  401b6d:	44 89 d1             	mov    %r10d,%ecx
  401b70:	4c 8d 84 24 10 1d 00 	lea    0x1d10(%rsp),%r8
  401b77:	00 
  401b78:	48 bf cd cc cc cc cc 	movabs $0xcccccccccccccccd,%rdi
  401b7f:	cc cc cc 
  401b82:	f7 d9                	neg    %ecx
  401b84:	4c 89 c6             	mov    %r8,%rsi
  401b87:	41 0f 48 ca          	cmovs  %r10d,%ecx
  401b8b:	48 63 c9             	movslq %ecx,%rcx
  401b8e:	eb 50                	jmp    401be0 <fmt_fp+0x3e0>
  401b90:	d9 ca                	fxch   %st(2)
  401b92:	d9 e0                	fchs
  401b94:	d8 e2                	fsub   %st(2),%st
  401b96:	de c2                	faddp  %st,%st(2)
  401b98:	d9 c9                	fxch   %st(1)
  401b9a:	d9 e0                	fchs
  401b9c:	d9 c9                	fxch   %st(1)
  401b9e:	eb cd                	jmp    401b6d <fmt_fp+0x36d>
  401ba0:	66 66 2e 0f 1f 84 00 	data16 cs nopw 0x0(%rax,%rax,1)
  401ba7:	00 00 00 00 
  401bab:	66 66 2e 0f 1f 84 00 	data16 cs nopw 0x0(%rax,%rax,1)
  401bb2:	00 00 00 00 
  401bb6:	66 2e 0f 1f 84 00 00 	cs nopw 0x0(%rax,%rax,1)
  401bbd:	00 00 00 
  401bc0:	48 89 c8             	mov    %rcx,%rax
  401bc3:	48 83 ee 01          	sub    $0x1,%rsi
  401bc7:	48 f7 e7             	mul    %rdi
  401bca:	48 c1 ea 03          	shr    $0x3,%rdx
  401bce:	48 8d 04 92          	lea    (%rdx,%rdx,4),%rax
  401bd2:	48 01 c0             	add    %rax,%rax
  401bd5:	48 29 c1             	sub    %rax,%rcx
  401bd8:	83 c1 30             	add    $0x30,%ecx
  401bdb:	88 0e                	mov    %cl,(%rsi)
  401bdd:	48 89 d1             	mov    %rdx,%rcx
  401be0:	48 85 c9             	test   %rcx,%rcx
  401be3:	75 db                	jne    401bc0 <fmt_fp+0x3c0>
  401be5:	4c 39 c6             	cmp    %r8,%rsi
  401be8:	74 59                	je     401c43 <fmt_fp+0x443>
  401bea:	8b 4c 24 18          	mov    0x18(%rsp),%ecx
  401bee:	48 8d 46 fe          	lea    -0x2(%rsi),%rax
  401bf2:	d9 ee                	fldz
  401bf4:	d9 ca                	fxch   %st(2)
  401bf6:	41 c1 fa 1f          	sar    $0x1f,%r10d
  401bfa:	41 83 e2 02          	and    $0x2,%r10d
  401bfe:	48 89 44 24 08       	mov    %rax,0x8(%rsp)
  401c03:	41 b9 01 00 00 00    	mov    $0x1,%r9d
  401c09:	89 c8                	mov    %ecx,%eax
  401c0b:	41 83 c2 2b          	add    $0x2b,%r10d
  401c0f:	83 c0 0f             	add    $0xf,%eax
  401c12:	44 88 56 ff          	mov    %r10b,-0x1(%rsi)
  401c16:	45 85 e4             	test   %r12d,%r12d
  401c19:	88 46 fe             	mov    %al,-0x2(%rsi)
  401c1c:	40 0f 9f c7          	setg   %dil
  401c20:	4c 89 c0             	mov    %r8,%rax
  401c23:	83 e1 20             	and    $0x20,%ecx
  401c26:	d9 7c 24 3e          	fnstcw 0x3e(%rsp)
  401c2a:	48 8d 35 8f 35 00 00 	lea    0x358f(%rip),%rsi        # 4051c0 <xdigits>
  401c31:	0f b7 54 24 3e       	movzwl 0x3e(%rsp),%edx
  401c36:	80 ce 0c             	or     $0xc,%dh
  401c39:	66 89 54 24 3c       	mov    %dx,0x3c(%rsp)
  401c3e:	e9 89 00 00 00       	jmp    401ccc <fmt_fp+0x4cc>
  401c43:	c6 46 ff 30          	movb   $0x30,-0x1(%rsi)
  401c47:	48 8d b4 24 0f 1d 00 	lea    0x1d0f(%rsp),%rsi
  401c4e:	00 
  401c4f:	eb 99                	jmp    401bea <fmt_fp+0x3ea>
  401c51:	d9 c2                	fld    %st(2)
  401c53:	df e9                	fucomip %st(1),%st
  401c55:	0f 9a c2             	setp   %dl
  401c58:	41 0f 45 d1          	cmovne %r9d,%edx
  401c5c:	84 d2                	test   %dl,%dl
  401c5e:	75 58                	jne    401cb8 <fmt_fp+0x4b8>
  401c60:	40 84 ff             	test   %dil,%dil
  401c63:	75 53                	jne    401cb8 <fmt_fp+0x4b8>
  401c65:	dd d8                	fstp   %st(0)
  401c67:	dd d8                	fstp   %st(0)
  401c69:	dd d8                	fstp   %st(0)
  401c6b:	f6 44 24 10 08       	testb  $0x8,0x10(%rsp)
  401c70:	74 08                	je     401c7a <fmt_fp+0x47a>
  401c72:	c6 40 01 2e          	movb   $0x2e,0x1(%rax)
  401c76:	4c 8d 78 02          	lea    0x2(%rax),%r15
  401c7a:	48 8b 44 24 08       	mov    0x8(%rsp),%rax
  401c7f:	4c 89 c5             	mov    %r8,%rbp
  401c82:	ba fd ff ff 7f       	mov    $0x7ffffffd,%edx
  401c87:	49 63 cc             	movslq %r12d,%rcx
  401c8a:	48 29 c5             	sub    %rax,%rbp
  401c8d:	48 63 c3             	movslq %ebx,%rax
  401c90:	48 29 ea             	sub    %rbp,%rdx
  401c93:	48 29 c2             	sub    %rax,%rdx
  401c96:	48 39 d1             	cmp    %rdx,%rcx
  401c99:	7f 74                	jg     401d0f <fmt_fp+0x50f>
  401c9b:	4d 29 c7             	sub    %r8,%r15
  401c9e:	45 85 e4             	test   %r12d,%r12d
  401ca1:	74 76                	je     401d19 <fmt_fp+0x519>
  401ca3:	49 8d 57 ff          	lea    -0x1(%r15),%rdx
  401ca7:	48 39 d1             	cmp    %rdx,%rcx
  401caa:	7c 6d                	jl     401d19 <fmt_fp+0x519>
  401cac:	45 8d 64 2c 02       	lea    0x2(%r12,%rbp,1),%r12d
  401cb1:	46 8d 74 3d 00       	lea    0x0(%rbp,%r15,1),%r14d
  401cb6:	eb 69                	jmp    401d21 <fmt_fp+0x521>
  401cb8:	c6 40 01 2e          	movb   $0x2e,0x1(%rax)
  401cbc:	48 83 c0 02          	add    $0x2,%rax
  401cc0:	d9 c2                	fld    %st(2)
  401cc2:	d9 c9                	fxch   %st(1)
  401cc4:	db e9                	fucomi %st(1),%st
  401cc6:	dd d9                	fstp   %st(1)
  401cc8:	7a 02                	jp     401ccc <fmt_fp+0x4cc>
  401cca:	74 35                	je     401d01 <fmt_fp+0x501>
  401ccc:	d9 c0                	fld    %st(0)
  401cce:	d9 6c 24 3c          	fldcw  0x3c(%rsp)
  401cd2:	db 1c 24             	fistpl (%rsp)
  401cd5:	d9 6c 24 3e          	fldcw  0x3e(%rsp)
  401cd9:	4c 8d 78 01          	lea    0x1(%rax),%r15
  401cdd:	db 04 24             	fildl  (%rsp)
  401ce0:	48 63 14 24          	movslq (%rsp),%rdx
  401ce4:	44 0f b6 1c 16       	movzbl (%rsi,%rdx,1),%r11d
  401ce9:	de e9                	fsubrp %st,%st(1)
  401ceb:	41 09 cb             	or     %ecx,%r11d
  401cee:	44 88 18             	mov    %r11b,(%rax)
  401cf1:	d8 c9                	fmul   %st(1),%st
  401cf3:	4c 39 c0             	cmp    %r8,%rax
  401cf6:	0f 84 55 ff ff ff    	je     401c51 <fmt_fp+0x451>
  401cfc:	4c 89 f8             	mov    %r15,%rax
  401cff:	eb bf                	jmp    401cc0 <fmt_fp+0x4c0>
  401d01:	dd d8                	fstp   %st(0)
  401d03:	dd d8                	fstp   %st(0)
  401d05:	dd d8                	fstp   %st(0)
  401d07:	49 89 c7             	mov    %rax,%r15
  401d0a:	e9 6b ff ff ff       	jmp    401c7a <fmt_fp+0x47a>
  401d0f:	b8 ff ff ff ff       	mov    $0xffffffff,%eax
  401d14:	e9 61 0d 00 00       	jmp    402a7a <fmt_fp+0x127a>
  401d19:	46 8d 74 3d 00       	lea    0x0(%rbp,%r15,1),%r14d
  401d1e:	45 89 f4             	mov    %r14d,%r12d
  401d21:	44 01 e3             	add    %r12d,%ebx
  401d24:	66 f7 44 24 11 20 01 	testw  $0x120,0x11(%rsp)
  401d2b:	0f 85 22 01 00 00    	jne    401e53 <fmt_fp+0x653>
  401d31:	8b 54 24 14          	mov    0x14(%rsp),%edx
  401d35:	39 d3                	cmp    %edx,%ebx
  401d37:	7c 6b                	jl     401da4 <fmt_fp+0x5a4>
  401d39:	41 f6 45 00 20       	testb  $0x20,0x0(%r13)
  401d3e:	0f 84 8c 00 00 00    	je     401dd0 <fmt_fp+0x5d0>
  401d44:	45 29 f4             	sub    %r14d,%r12d
  401d47:	45 85 e4             	test   %r12d,%r12d
  401d4a:	0f 8e 21 0d 00 00    	jle    402a71 <fmt_fp+0x1271>
  401d50:	8b 44 24 14          	mov    0x14(%rsp),%eax
  401d54:	39 c3                	cmp    %eax,%ebx
  401d56:	0f 9d 04 24          	setge  (%rsp)
  401d5a:	31 c9                	xor    %ecx,%ecx
  401d5c:	44 89 e2             	mov    %r12d,%edx
  401d5f:	be 30 00 00 00       	mov    $0x30,%esi
  401d64:	4c 89 ef             	mov    %r13,%rdi
  401d67:	e8 b4 f9 ff ff       	call   401720 <pad.part.0>
  401d6c:	41 f6 45 00 20       	testb  $0x20,0x0(%r13)
  401d71:	75 10                	jne    401d83 <fmt_fp+0x583>
  401d73:	48 8b 7c 24 08       	mov    0x8(%rsp),%rdi
  401d78:	4c 89 ea             	mov    %r13,%rdx
  401d7b:	48 89 ee             	mov    %rbp,%rsi
  401d7e:	e8 1d 27 00 00       	call   4044a0 <__fwritex>
  401d83:	8b 44 24 10          	mov    0x10(%rsp),%eax
  401d87:	80 f4 20             	xor    $0x20,%ah
  401d8a:	a9 00 20 01 00       	test   $0x12000,%eax
  401d8f:	0f 85 dc 0c 00 00    	jne    402a71 <fmt_fp+0x1271>
  401d95:	80 3c 24 00          	cmpb   $0x0,(%rsp)
  401d99:	0f 84 24 fc ff ff    	je     4019c3 <fmt_fp+0x1c3>
  401d9f:	e9 cd 0c 00 00       	jmp    402a71 <fmt_fp+0x1271>
  401da4:	89 d9                	mov    %ebx,%ecx
  401da6:	be 20 00 00 00       	mov    $0x20,%esi
  401dab:	4c 89 ef             	mov    %r13,%rdi
  401dae:	48 89 44 24 18       	mov    %rax,0x18(%rsp)
  401db3:	4c 89 04 24          	mov    %r8,(%rsp)
  401db7:	e8 64 f9 ff ff       	call   401720 <pad.part.0>
  401dbc:	41 f6 45 00 20       	testb  $0x20,0x0(%r13)
  401dc1:	4c 8b 04 24          	mov    (%rsp),%r8
  401dc5:	48 8b 44 24 18       	mov    0x18(%rsp),%rax
  401dca:	0f 85 74 ff ff ff    	jne    401d44 <fmt_fp+0x544>
  401dd0:	48 8b 7c 24 28       	mov    0x28(%rsp),%rdi
  401dd5:	4c 89 ea             	mov    %r13,%rdx
  401dd8:	48 89 c6             	mov    %rax,%rsi
  401ddb:	4c 89 44 24 18       	mov    %r8,0x18(%rsp)
  401de0:	e8 bb 26 00 00       	call   4044a0 <__fwritex>
  401de5:	8b 44 24 14          	mov    0x14(%rsp),%eax
  401de9:	4c 8b 44 24 18       	mov    0x18(%rsp),%r8
  401dee:	39 c3                	cmp    %eax,%ebx
  401df0:	8b 44 24 10          	mov    0x10(%rsp),%eax
  401df4:	0f 9d 04 24          	setge  (%rsp)
  401df8:	0f b6 0c 24          	movzbl (%rsp),%ecx
  401dfc:	35 00 00 01 00       	xor    $0x10000,%eax
  401e01:	a9 00 20 01 00       	test   $0x12000,%eax
  401e06:	75 25                	jne    401e2d <fmt_fp+0x62d>
  401e08:	84 c9                	test   %cl,%cl
  401e0a:	75 21                	jne    401e2d <fmt_fp+0x62d>
  401e0c:	8b 54 24 14          	mov    0x14(%rsp),%edx
  401e10:	89 d9                	mov    %ebx,%ecx
  401e12:	be 30 00 00 00       	mov    $0x30,%esi
  401e17:	4c 89 ef             	mov    %r13,%rdi
  401e1a:	4c 89 44 24 18       	mov    %r8,0x18(%rsp)
  401e1f:	e8 fc f8 ff ff       	call   401720 <pad.part.0>
  401e24:	c6 04 24 00          	movb   $0x0,(%rsp)
  401e28:	4c 8b 44 24 18       	mov    0x18(%rsp),%r8
  401e2d:	41 f6 45 00 20       	testb  $0x20,0x0(%r13)
  401e32:	75 4c                	jne    401e80 <fmt_fp+0x680>
  401e34:	4c 89 ea             	mov    %r13,%rdx
  401e37:	4c 89 fe             	mov    %r15,%rsi
  401e3a:	4c 89 c7             	mov    %r8,%rdi
  401e3d:	45 29 f4             	sub    %r14d,%r12d
  401e40:	e8 5b 26 00 00       	call   4044a0 <__fwritex>
  401e45:	45 85 e4             	test   %r12d,%r12d
  401e48:	0f 8e 1e ff ff ff    	jle    401d6c <fmt_fp+0x56c>
  401e4e:	e9 07 ff ff ff       	jmp    401d5a <fmt_fp+0x55a>
  401e53:	41 f6 45 00 20       	testb  $0x20,0x0(%r13)
  401e58:	0f 84 72 ff ff ff    	je     401dd0 <fmt_fp+0x5d0>
  401e5e:	8b 44 24 14          	mov    0x14(%rsp),%eax
  401e62:	39 c3                	cmp    %eax,%ebx
  401e64:	8b 44 24 10          	mov    0x10(%rsp),%eax
  401e68:	0f 9d 04 24          	setge  (%rsp)
  401e6c:	0f b6 0c 24          	movzbl (%rsp),%ecx
  401e70:	35 00 00 01 00       	xor    $0x10000,%eax
  401e75:	a9 00 20 01 00       	test   $0x12000,%eax
  401e7a:	75 04                	jne    401e80 <fmt_fp+0x680>
  401e7c:	84 c9                	test   %cl,%cl
  401e7e:	74 8c                	je     401e0c <fmt_fp+0x60c>
  401e80:	45 29 f4             	sub    %r14d,%r12d
  401e83:	45 85 e4             	test   %r12d,%r12d
  401e86:	0f 8e f7 fe ff ff    	jle    401d83 <fmt_fp+0x583>
  401e8c:	e9 c9 fe ff ff       	jmp    401d5a <fmt_fp+0x55a>
  401e91:	c6 44 24 38 01       	movb   $0x1,0x38(%rsp)
  401e96:	41 be 04 00 00 00    	mov    $0x4,%r14d
  401e9c:	41 bc 06 00 00 00    	mov    $0x6,%r12d
  401ea2:	48 c7 44 24 08 10 00 	movq   $0x10,0x8(%rsp)
  401ea9:	00 00 
  401eab:	e9 c3 fb ff ff       	jmp    401a73 <fmt_fp+0x273>
  401eb0:	c6 44 24 38 01       	movb   $0x1,0x38(%rsp)
  401eb5:	41 be 04 00 00 00    	mov    $0x4,%r14d
  401ebb:	41 bc 06 00 00 00    	mov    $0x6,%r12d
  401ec1:	48 c7 44 24 08 10 00 	movq   $0x10,0x8(%rsp)
  401ec8:	00 00 
  401eca:	e9 b3 fb ff ff       	jmp    401a82 <fmt_fp+0x282>
  401ecf:	66 66 2e 0f 1f 84 00 	data16 cs nopw 0x0(%rax,%rax,1)
  401ed6:	00 00 00 00 
  401eda:	66 66 2e 0f 1f 84 00 	data16 cs nopw 0x0(%rax,%rax,1)
  401ee1:	00 00 00 00 
  401ee5:	66 66 2e 0f 1f 84 00 	data16 cs nopw 0x0(%rax,%rax,1)
  401eec:	00 00 00 00 
  401ef0:	66 66 2e 0f 1f 84 00 	data16 cs nopw 0x0(%rax,%rax,1)
  401ef7:	00 00 00 00 
  401efb:	0f 1f 44 00 00       	nopl   0x0(%rax,%rax,1)
  401f00:	8b 37                	mov    (%rdi),%esi
  401f02:	89 d2                	mov    %edx,%edx
  401f04:	48 83 ef 04          	sub    $0x4,%rdi
  401f08:	48 d3 e6             	shl    %cl,%rsi
  401f0b:	48 01 d6             	add    %rdx,%rsi
  401f0e:	48 89 f2             	mov    %rsi,%rdx
  401f11:	48 c1 ea 09          	shr    $0x9,%rdx
  401f15:	48 89 d0             	mov    %rdx,%rax
  401f18:	49 f7 e0             	mul    %r8
  401f1b:	48 c1 ea 0b          	shr    $0xb,%rdx
  401f1f:	48 69 c2 00 ca 9a 3b 	imul   $0x3b9aca00,%rdx,%rax
  401f26:	48 29 c6             	sub    %rax,%rsi
  401f29:	89 77 04             	mov    %esi,0x4(%rdi)
  401f2c:	48 39 ef             	cmp    %rbp,%rdi
  401f2f:	73 cf                	jae    401f00 <fmt_fp+0x700>
  401f31:	85 d2                	test   %edx,%edx
  401f33:	74 0f                	je     401f44 <fmt_fp+0x744>
  401f35:	89 55 fc             	mov    %edx,-0x4(%rbp)
  401f38:	48 83 ed 04          	sub    $0x4,%rbp
  401f3c:	eb 06                	jmp    401f44 <fmt_fp+0x744>
  401f3e:	66 90                	xchg   %ax,%ax
  401f40:	48 83 eb 04          	sub    $0x4,%rbx
  401f44:	48 39 dd             	cmp    %rbx,%rbp
  401f47:	73 07                	jae    401f50 <fmt_fp+0x750>
  401f49:	8b 73 fc             	mov    -0x4(%rbx),%esi
  401f4c:	85 f6                	test   %esi,%esi
  401f4e:	74 f0                	je     401f40 <fmt_fp+0x740>
  401f50:	41 29 c9             	sub    %ecx,%r9d
  401f53:	b8 01 00 00 00       	mov    $0x1,%eax
  401f58:	45 85 c9             	test   %r9d,%r9d
  401f5b:	7e 14                	jle    401f71 <fmt_fp+0x771>
  401f5d:	b9 1d 00 00 00       	mov    $0x1d,%ecx
  401f62:	48 8d 7b fc          	lea    -0x4(%rbx),%rdi
  401f66:	41 39 c9             	cmp    %ecx,%r9d
  401f69:	41 0f 4e c9          	cmovle %r9d,%ecx
  401f6d:	31 d2                	xor    %edx,%edx
  401f6f:	eb bb                	jmp    401f2c <fmt_fp+0x72c>
  401f71:	84 c0                	test   %al,%al
  401f73:	74 09                	je     401f7e <fmt_fp+0x77e>
  401f75:	44 89 4c 24 4c       	mov    %r9d,0x4c(%rsp)
  401f7a:	31 c0                	xor    %eax,%eax
  401f7c:	eb 7d                	jmp    401ffb <fmt_fp+0x7fb>
  401f7e:	45 89 d1             	mov    %r10d,%r9d
  401f81:	eb f7                	jmp    401f7a <fmt_fp+0x77a>
  401f83:	44 89 c9             	mov    %r9d,%ecx
  401f86:	45 31 c9             	xor    %r9d,%r9d
  401f89:	f7 d9                	neg    %ecx
  401f8b:	e9 83 00 00 00       	jmp    402013 <fmt_fp+0x813>
  401f90:	66 66 2e 0f 1f 84 00 	data16 cs nopw 0x0(%rax,%rax,1)
  401f97:	00 00 00 00 
  401f9b:	0f 1f 44 00 00       	nopl   0x0(%rax,%rax,1)
  401fa0:	8b 10                	mov    (%rax),%edx
  401fa2:	48 83 c0 04          	add    $0x4,%rax
  401fa6:	89 d6                	mov    %edx,%esi
  401fa8:	44 21 c2             	and    %r8d,%edx
  401fab:	d3 ee                	shr    %cl,%esi
  401fad:	01 fe                	add    %edi,%esi
  401faf:	89 d7                	mov    %edx,%edi
  401fb1:	89 70 fc             	mov    %esi,-0x4(%rax)
  401fb4:	41 0f af fa          	imul   %r10d,%edi
  401fb8:	48 39 d8             	cmp    %rbx,%rax
  401fbb:	72 e3                	jb     401fa0 <fmt_fp+0x7a0>
  401fbd:	8b 4d 00             	mov    0x0(%rbp),%ecx
  401fc0:	85 c9                	test   %ecx,%ecx
  401fc2:	75 04                	jne    401fc8 <fmt_fp+0x7c8>
  401fc4:	48 83 c5 04          	add    $0x4,%rbp
  401fc8:	85 ff                	test   %edi,%edi
  401fca:	74 06                	je     401fd2 <fmt_fp+0x7d2>
  401fcc:	89 3b                	mov    %edi,(%rbx)
  401fce:	48 83 c3 04          	add    $0x4,%rbx
  401fd2:	41 83 fb 66          	cmp    $0x66,%r11d
  401fd6:	4c 89 f8             	mov    %r15,%rax
  401fd9:	48 89 da             	mov    %rbx,%rdx
  401fdc:	48 8b 4c 24 08       	mov    0x8(%rsp),%rcx
  401fe1:	48 0f 45 c5          	cmovne %rbp,%rax
  401fe5:	48 29 c2             	sub    %rax,%rdx
  401fe8:	48 01 c8             	add    %rcx,%rax
  401feb:	48 c1 fa 02          	sar    $0x2,%rdx
  401fef:	4c 39 f2             	cmp    %r14,%rdx
  401ff2:	48 0f 4f d8          	cmovg  %rax,%rbx
  401ff6:	b8 01 00 00 00       	mov    $0x1,%eax
  401ffb:	45 85 c9             	test   %r9d,%r9d
  401ffe:	79 30                	jns    402030 <fmt_fp+0x830>
  402000:	41 83 f9 f7          	cmp    $0xfffffff7,%r9d
  402004:	0f 8d 79 ff ff ff    	jge    401f83 <fmt_fp+0x783>
  40200a:	41 83 c1 09          	add    $0x9,%r9d
  40200e:	b9 09 00 00 00       	mov    $0x9,%ecx
  402013:	41 b8 01 00 00 00    	mov    $0x1,%r8d
  402019:	41 ba 00 ca 9a 3b    	mov    $0x3b9aca00,%r10d
  40201f:	48 89 e8             	mov    %rbp,%rax
  402022:	31 ff                	xor    %edi,%edi
  402024:	41 d3 e0             	shl    %cl,%r8d
  402027:	41 d3 fa             	sar    %cl,%r10d
  40202a:	41 83 e8 01          	sub    $0x1,%r8d
  40202e:	eb 88                	jmp    401fb8 <fmt_fp+0x7b8>
  402030:	84 c0                	test   %al,%al
  402032:	74 05                	je     402039 <fmt_fp+0x839>
  402034:	44 89 4c 24 4c       	mov    %r9d,0x4c(%rsp)
  402039:	48 39 dd             	cmp    %rbx,%rbp
  40203c:	0f 83 98 00 00 00    	jae    4020da <fmt_fp+0x8da>
  402042:	4c 89 f8             	mov    %r15,%rax
  402045:	8b 55 00             	mov    0x0(%rbp),%edx
  402048:	48 29 e8             	sub    %rbp,%rax
  40204b:	48 c1 f8 02          	sar    $0x2,%rax
  40204f:	8d 3c c0             	lea    (%rax,%rax,8),%edi
  402052:	b8 0a 00 00 00       	mov    $0xa,%eax
  402057:	eb 0f                	jmp    402068 <fmt_fp+0x868>
  402059:	0f 1f 80 00 00 00 00 	nopl   0x0(%rax)
  402060:	8d 04 80             	lea    (%rax,%rax,4),%eax
  402063:	83 c7 01             	add    $0x1,%edi
  402066:	01 c0                	add    %eax,%eax
  402068:	39 c2                	cmp    %eax,%edx
  40206a:	73 f4                	jae    402060 <fmt_fp+0x860>
  40206c:	31 d2                	xor    %edx,%edx
  40206e:	41 83 fb 66          	cmp    $0x66,%r11d
  402072:	44 89 e0             	mov    %r12d,%eax
  402075:	0f 45 d7             	cmovne %edi,%edx
  402078:	29 d0                	sub    %edx,%eax
  40207a:	8b 4c 24 38          	mov    0x38(%rsp),%ecx
  40207e:	31 d2                	xor    %edx,%edx
  402080:	41 83 fb 67          	cmp    $0x67,%r11d
  402084:	0f 94 c2             	sete   %dl
  402087:	21 ca                	and    %ecx,%edx
  402089:	29 d0                	sub    %edx,%eax
  40208b:	48 89 da             	mov    %rbx,%rdx
  40208e:	4c 29 fa             	sub    %r15,%rdx
  402091:	48 63 c8             	movslq %eax,%rcx
  402094:	48 c1 fa 02          	sar    $0x2,%rdx
  402098:	48 8d 54 d2 f7       	lea    -0x9(%rdx,%rdx,8),%rdx
  40209d:	48 39 d1             	cmp    %rdx,%rcx
  4020a0:	0f 8d be 01 00 00    	jge    402264 <fmt_fp+0xa64>
  4020a6:	05 00 40 02 00       	add    $0x24000,%eax
  4020ab:	48 63 d0             	movslq %eax,%rdx
  4020ae:	89 c1                	mov    %eax,%ecx
  4020b0:	48 69 d2 39 8e e3 38 	imul   $0x38e38e39,%rdx,%rdx
  4020b7:	c1 f9 1f             	sar    $0x1f,%ecx
  4020ba:	48 c1 fa 21          	sar    $0x21,%rdx
  4020be:	29 ca                	sub    %ecx,%edx
  4020c0:	48 63 ca             	movslq %edx,%rcx
  4020c3:	8d 14 d2             	lea    (%rdx,%rdx,8),%edx
  4020c6:	29 d0                	sub    %edx,%eax
  4020c8:	49 8d b4 8f 04 00 ff 	lea    -0xfffc(%r15,%rcx,4),%rsi
  4020cf:	ff 
  4020d0:	b9 0a 00 00 00       	mov    $0xa,%ecx
  4020d5:	83 c0 01             	add    $0x1,%eax
  4020d8:	eb 1e                	jmp    4020f8 <fmt_fp+0x8f8>
  4020da:	44 89 e0             	mov    %r12d,%eax
  4020dd:	31 ff                	xor    %edi,%edi
  4020df:	eb 99                	jmp    40207a <fmt_fp+0x87a>
  4020e1:	66 66 2e 0f 1f 84 00 	data16 cs nopw 0x0(%rax,%rax,1)
  4020e8:	00 00 00 00 
  4020ec:	0f 1f 40 00          	nopl   0x0(%rax)
  4020f0:	8d 0c 89             	lea    (%rcx,%rcx,4),%ecx
  4020f3:	83 c0 01             	add    $0x1,%eax
  4020f6:	01 c9                	add    %ecx,%ecx
  4020f8:	83 f8 09             	cmp    $0x9,%eax
  4020fb:	75 f3                	jne    4020f0 <fmt_fp+0x8f0>
  4020fd:	44 8b 16             	mov    (%rsi),%r10d
  402100:	31 d2                	xor    %edx,%edx
  402102:	44 89 d0             	mov    %r10d,%eax
  402105:	f7 f1                	div    %ecx
  402107:	41 89 d1             	mov    %edx,%r9d
  40210a:	85 d2                	test   %edx,%edx
  40210c:	75 3d                	jne    40214b <fmt_fp+0x94b>
  40210e:	4c 8d 46 04          	lea    0x4(%rsi),%r8
  402112:	48 89 da             	mov    %rbx,%rdx
  402115:	4c 39 c3             	cmp    %r8,%rbx
  402118:	0f 84 8e 00 00 00    	je     4021ac <fmt_fp+0x9ac>
  40211e:	a8 01                	test   $0x1,%al
  402120:	0f 85 9f 00 00 00    	jne    4021c5 <fmt_fp+0x9c5>
  402126:	48 39 f5             	cmp    %rsi,%rbp
  402129:	73 12                	jae    40213d <fmt_fp+0x93d>
  40212b:	81 f9 00 ca 9a 3b    	cmp    $0x3b9aca00,%ecx
  402131:	75 0a                	jne    40213d <fmt_fp+0x93d>
  402133:	f6 46 fc 01          	testb  $0x1,-0x4(%rsi)
  402137:	0f 85 88 00 00 00    	jne    4021c5 <fmt_fp+0x9c5>
  40213d:	d9 05 71 32 00 00    	flds   0x3271(%rip)        # 4053b4 <states+0x1d4>
  402143:	d9 05 6f 32 00 00    	flds   0x326f(%rip)        # 4053b8 <states+0x1d8>
  402149:	eb 39                	jmp    402184 <fmt_fp+0x984>
  40214b:	a8 01                	test   $0x1,%al
  40214d:	75 1b                	jne    40216a <fmt_fp+0x96a>
  40214f:	81 f9 00 ca 9a 3b    	cmp    $0x3b9aca00,%ecx
  402155:	75 0b                	jne    402162 <fmt_fp+0x962>
  402157:	48 39 f5             	cmp    %rsi,%rbp
  40215a:	73 06                	jae    402162 <fmt_fp+0x962>
  40215c:	f6 46 fc 01          	testb  $0x1,-0x4(%rsi)
  402160:	75 08                	jne    40216a <fmt_fp+0x96a>
  402162:	d9 05 4c 32 00 00    	flds   0x324c(%rip)        # 4053b4 <states+0x1d4>
  402168:	eb 06                	jmp    402170 <fmt_fp+0x970>
  40216a:	db 2d 70 32 00 00    	fldt   0x3270(%rip)        # 4053e0 <states+0x200>
  402170:	89 c8                	mov    %ecx,%eax
  402172:	d1 f8                	sar    %eax
  402174:	41 39 c1             	cmp    %eax,%r9d
  402177:	72 52                	jb     4021cb <fmt_fp+0x9cb>
  402179:	44 39 c8             	cmp    %r9d,%eax
  40217c:	74 3a                	je     4021b8 <fmt_fp+0x9b8>
  40217e:	d9 05 38 32 00 00    	flds   0x3238(%rip)        # 4053bc <states+0x1dc>
  402184:	8b 54 24 20          	mov    0x20(%rsp),%edx
  402188:	85 d2                	test   %edx,%edx
  40218a:	74 0a                	je     402196 <fmt_fp+0x996>
  40218c:	48 8b 44 24 28       	mov    0x28(%rsp),%rax
  402191:	80 38 2d             	cmpb   $0x2d,(%rax)
  402194:	74 3d                	je     4021d3 <fmt_fp+0x9d3>
  402196:	d8 c1                	fadd   %st(1),%st
  402198:	44 89 d0             	mov    %r10d,%eax
  40219b:	44 29 c8             	sub    %r9d,%eax
  40219e:	df e9                	fucomip %st(1),%st
  4021a0:	dd d8                	fstp   %st(0)
  4021a2:	7a 39                	jp     4021dd <fmt_fp+0x9dd>
  4021a4:	75 37                	jne    4021dd <fmt_fp+0x9dd>
  4021a6:	89 06                	mov    %eax,(%rsi)
  4021a8:	48 8d 56 04          	lea    0x4(%rsi),%rdx
  4021ac:	48 39 d3             	cmp    %rdx,%rbx
  4021af:	48 0f 47 da          	cmova  %rdx,%rbx
  4021b3:	e9 ac 00 00 00       	jmp    402264 <fmt_fp+0xa64>
  4021b8:	48 8d 46 04          	lea    0x4(%rsi),%rax
  4021bc:	48 39 c3             	cmp    %rax,%rbx
  4021bf:	75 bd                	jne    40217e <fmt_fp+0x97e>
  4021c1:	d9 e8                	fld1
  4021c3:	eb bf                	jmp    402184 <fmt_fp+0x984>
  4021c5:	db 2d 15 32 00 00    	fldt   0x3215(%rip)        # 4053e0 <states+0x200>
  4021cb:	d9 05 e7 31 00 00    	flds   0x31e7(%rip)        # 4053b8 <states+0x1d8>
  4021d1:	eb b1                	jmp    402184 <fmt_fp+0x984>
  4021d3:	d9 c9                	fxch   %st(1)
  4021d5:	d9 e0                	fchs
  4021d7:	d9 c9                	fxch   %st(1)
  4021d9:	d9 e0                	fchs
  4021db:	eb b9                	jmp    402196 <fmt_fp+0x996>
  4021dd:	01 c8                	add    %ecx,%eax
  4021df:	89 06                	mov    %eax,(%rsi)
  4021e1:	eb 20                	jmp    402203 <fmt_fp+0xa03>
  4021e3:	66 66 2e 0f 1f 84 00 	data16 cs nopw 0x0(%rax,%rax,1)
  4021ea:	00 00 00 00 
  4021ee:	66 66 2e 0f 1f 84 00 	data16 cs nopw 0x0(%rax,%rax,1)
  4021f5:	00 00 00 00 
  4021f9:	0f 1f 80 00 00 00 00 	nopl   0x0(%rax)
  402200:	83 06 01             	addl   $0x1,(%rsi)
  402203:	81 3e ff c9 9a 3b    	cmpl   $0x3b9ac9ff,(%rsi)
  402209:	76 1d                	jbe    402228 <fmt_fp+0xa28>
  40220b:	48 83 ee 04          	sub    $0x4,%rsi
  40220f:	c7 46 04 00 00 00 00 	movl   $0x0,0x4(%rsi)
  402216:	48 39 ee             	cmp    %rbp,%rsi
  402219:	73 e5                	jae    402200 <fmt_fp+0xa00>
  40221b:	c7 45 fc 00 00 00 00 	movl   $0x0,-0x4(%rbp)
  402222:	48 83 ed 04          	sub    $0x4,%rbp
  402226:	eb d8                	jmp    402200 <fmt_fp+0xa00>
  402228:	4c 89 f8             	mov    %r15,%rax
  40222b:	8b 55 00             	mov    0x0(%rbp),%edx
  40222e:	48 29 e8             	sub    %rbp,%rax
  402231:	48 c1 f8 02          	sar    $0x2,%rax
  402235:	8d 3c c0             	lea    (%rax,%rax,8),%edi
  402238:	b8 0a 00 00 00       	mov    $0xa,%eax
  40223d:	eb 09                	jmp    402248 <fmt_fp+0xa48>
  40223f:	90                   	nop
  402240:	8d 04 80             	lea    (%rax,%rax,4),%eax
  402243:	83 c7 01             	add    $0x1,%edi
  402246:	01 c0                	add    %eax,%eax
  402248:	39 c2                	cmp    %eax,%edx
  40224a:	73 f4                	jae    402240 <fmt_fp+0xa40>
  40224c:	48 8d 56 04          	lea    0x4(%rsi),%rdx
  402250:	e9 57 ff ff ff       	jmp    4021ac <fmt_fp+0x9ac>
  402255:	66 66 2e 0f 1f 84 00 	data16 cs nopw 0x0(%rax,%rax,1)
  40225c:	00 00 00 00 
  402260:	48 83 eb 04          	sub    $0x4,%rbx
  402264:	48 39 dd             	cmp    %rbx,%rbp
  402267:	73 07                	jae    402270 <fmt_fp+0xa70>
  402269:	8b 43 fc             	mov    -0x4(%rbx),%eax
  40226c:	85 c0                	test   %eax,%eax
  40226e:	74 f0                	je     402260 <fmt_fp+0xa60>
  402270:	41 83 fb 67          	cmp    $0x67,%r11d
  402274:	74 43                	je     4022b9 <fmt_fp+0xab9>
  402276:	45 85 e4             	test   %r12d,%r12d
  402279:	0f 85 49 02 00 00    	jne    4024c8 <fmt_fp+0xcc8>
  40227f:	44 8b 74 24 10       	mov    0x10(%rsp),%r14d
  402284:	41 ba ff ff ff 7f    	mov    $0x7fffffff,%r10d
  40228a:	41 c1 ee 03          	shr    $0x3,%r14d
  40228e:	41 83 e6 01          	and    $0x1,%r14d
  402292:	41 83 c6 01          	add    $0x1,%r14d
  402296:	45 29 f2             	sub    %r14d,%r10d
  402299:	41 83 fb 66          	cmp    $0x66,%r11d
  40229d:	0f 85 4f 02 00 00    	jne    4024f2 <fmt_fp+0xcf2>
  4022a3:	44 39 d7             	cmp    %r10d,%edi
  4022a6:	0f 8f 63 fa ff ff    	jg     401d0f <fmt_fp+0x50f>
  4022ac:	85 ff                	test   %edi,%edi
  4022ae:	0f 8f 06 02 00 00    	jg     4024ba <fmt_fp+0xcba>
  4022b4:	e9 1c 03 00 00       	jmp    4025d5 <fmt_fp+0xdd5>
  4022b9:	45 85 e4             	test   %r12d,%r12d
  4022bc:	41 be 01 00 00 00    	mov    $0x1,%r14d
  4022c2:	8b 44 24 10          	mov    0x10(%rsp),%eax
  4022c6:	45 0f 4f f4          	cmovg  %r12d,%r14d
  4022ca:	83 e0 08             	and    $0x8,%eax
  4022cd:	41 39 fe             	cmp    %edi,%r14d
  4022d0:	7e 5c                	jle    40232e <fmt_fp+0xb2e>
  4022d2:	83 ff fc             	cmp    $0xfffffffc,%edi
  4022d5:	7c 57                	jl     40232e <fmt_fp+0xb2e>
  4022d7:	8d 57 01             	lea    0x1(%rdi),%edx
  4022da:	83 6c 24 18 01       	subl   $0x1,0x18(%rsp)
  4022df:	41 29 d6             	sub    %edx,%r14d
  4022e2:	45 89 f4             	mov    %r14d,%r12d
  4022e5:	85 c0                	test   %eax,%eax
  4022e7:	0f 84 c3 00 00 00    	je     4023b0 <fmt_fp+0xbb0>
  4022ed:	45 85 f6             	test   %r14d,%r14d
  4022f0:	0f 85 d2 01 00 00    	jne    4024c8 <fmt_fp+0xcc8>
  4022f6:	44 8b 5c 24 18       	mov    0x18(%rsp),%r11d
  4022fb:	41 ba fd ff ff 7f    	mov    $0x7ffffffd,%r10d
  402301:	41 be 02 00 00 00    	mov    $0x2,%r14d
  402307:	41 83 cb 20          	or     $0x20,%r11d
  40230b:	41 83 fb 66          	cmp    $0x66,%r11d
  40230f:	0f 85 dd 01 00 00    	jne    4024f2 <fmt_fp+0xcf2>
  402315:	81 ff fe ff ff 7f    	cmp    $0x7ffffffe,%edi
  40231b:	0f 84 ee f9 ff ff    	je     401d0f <fmt_fp+0x50f>
  402321:	85 ff                	test   %edi,%edi
  402323:	0f 85 91 01 00 00    	jne    4024ba <fmt_fp+0xcba>
  402329:	e9 a7 02 00 00       	jmp    4025d5 <fmt_fp+0xdd5>
  40232e:	83 6c 24 18 02       	subl   $0x2,0x18(%rsp)
  402333:	45 8d 66 ff          	lea    -0x1(%r14),%r12d
  402337:	85 c0                	test   %eax,%eax
  402339:	0f 85 01 01 00 00    	jne    402440 <fmt_fp+0xc40>
  40233f:	48 39 dd             	cmp    %rbx,%rbp
  402342:	73 09                	jae    40234d <fmt_fp+0xb4d>
  402344:	44 8b 43 fc          	mov    -0x4(%rbx),%r8d
  402348:	45 85 c0             	test   %r8d,%r8d
  40234b:	75 76                	jne    4023c3 <fmt_fp+0xbc3>
  40234d:	be 09 00 00 00       	mov    $0x9,%esi
  402352:	48 89 d8             	mov    %rbx,%rax
  402355:	48 63 d7             	movslq %edi,%rdx
  402358:	4d 63 e4             	movslq %r12d,%r12
  40235b:	4c 29 f8             	sub    %r15,%rax
  40235e:	48 c1 f8 02          	sar    $0x2,%rax
  402362:	48 8d 44 c0 f7       	lea    -0x9(%rax,%rax,8),%rax
  402367:	48 01 d0             	add    %rdx,%rax
  40236a:	ba 00 00 00 00       	mov    $0x0,%edx
  40236f:	48 29 f0             	sub    %rsi,%rax
  402372:	48 0f 48 c2          	cmovs  %rdx,%rax
  402376:	4c 39 e0             	cmp    %r12,%rax
  402379:	49 0f 4f c4          	cmovg  %r12,%rax
  40237d:	41 89 c4             	mov    %eax,%r12d
  402380:	48 85 c0             	test   %rax,%rax
  402383:	0f 85 3f 01 00 00    	jne    4024c8 <fmt_fp+0xcc8>
  402389:	44 8b 5c 24 18       	mov    0x18(%rsp),%r11d
  40238e:	41 83 cb 20          	or     $0x20,%r11d
  402392:	41 83 fb 66          	cmp    $0x66,%r11d
  402396:	0f 84 86 00 00 00    	je     402422 <fmt_fp+0xc22>
  40239c:	41 ba fe ff ff 7f    	mov    $0x7ffffffe,%r10d
  4023a2:	41 be 01 00 00 00    	mov    $0x1,%r14d
  4023a8:	45 31 e4             	xor    %r12d,%r12d
  4023ab:	e9 42 01 00 00       	jmp    4024f2 <fmt_fp+0xcf2>
  4023b0:	be 09 00 00 00       	mov    $0x9,%esi
  4023b5:	48 39 dd             	cmp    %rbx,%rbp
  4023b8:	73 28                	jae    4023e2 <fmt_fp+0xbe2>
  4023ba:	44 8b 43 fc          	mov    -0x4(%rbx),%r8d
  4023be:	45 85 c0             	test   %r8d,%r8d
  4023c1:	74 1f                	je     4023e2 <fmt_fp+0xbe2>
  4023c3:	31 f6                	xor    %esi,%esi
  4023c5:	b9 0a 00 00 00       	mov    $0xa,%ecx
  4023ca:	eb 08                	jmp    4023d4 <fmt_fp+0xbd4>
  4023cc:	8d 0c 89             	lea    (%rcx,%rcx,4),%ecx
  4023cf:	83 c6 01             	add    $0x1,%esi
  4023d2:	01 c9                	add    %ecx,%ecx
  4023d4:	44 89 c0             	mov    %r8d,%eax
  4023d7:	31 d2                	xor    %edx,%edx
  4023d9:	f7 f1                	div    %ecx
  4023db:	85 d2                	test   %edx,%edx
  4023dd:	74 ed                	je     4023cc <fmt_fp+0xbcc>
  4023df:	48 63 f6             	movslq %esi,%rsi
  4023e2:	44 8b 5c 24 18       	mov    0x18(%rsp),%r11d
  4023e7:	41 83 cb 20          	or     $0x20,%r11d
  4023eb:	41 83 fb 66          	cmp    $0x66,%r11d
  4023ef:	0f 85 5d ff ff ff    	jne    402352 <fmt_fp+0xb52>
  4023f5:	48 89 d8             	mov    %rbx,%rax
  4023f8:	ba 00 00 00 00       	mov    $0x0,%edx
  4023fd:	4d 63 e4             	movslq %r12d,%r12
  402400:	4c 29 f8             	sub    %r15,%rax
  402403:	4d 89 e6             	mov    %r12,%r14
  402406:	48 c1 f8 02          	sar    $0x2,%rax
  40240a:	48 8d 44 c0 f7       	lea    -0x9(%rax,%rax,8),%rax
  40240f:	48 29 f0             	sub    %rsi,%rax
  402412:	48 0f 48 c2          	cmovs  %rdx,%rax
  402416:	4c 39 e0             	cmp    %r12,%rax
  402419:	4c 0f 4e f0          	cmovle %rax,%r14
  40241d:	4d 85 f6             	test   %r14,%r14
  402420:	75 64                	jne    402486 <fmt_fp+0xc86>
  402422:	81 ff ff ff ff 7f    	cmp    $0x7fffffff,%edi
  402428:	0f 84 e1 f8 ff ff    	je     401d0f <fmt_fp+0x50f>
  40242e:	45 31 e4             	xor    %r12d,%r12d
  402431:	41 be 01 00 00 00    	mov    $0x1,%r14d
  402437:	85 ff                	test   %edi,%edi
  402439:	7f 7f                	jg     4024ba <fmt_fp+0xcba>
  40243b:	e9 95 01 00 00       	jmp    4025d5 <fmt_fp+0xdd5>
  402440:	45 85 e4             	test   %r12d,%r12d
  402443:	75 1a                	jne    40245f <fmt_fp+0xc5f>
  402445:	44 8b 5c 24 18       	mov    0x18(%rsp),%r11d
  40244a:	41 ba fd ff ff 7f    	mov    $0x7ffffffd,%r10d
  402450:	41 be 02 00 00 00    	mov    $0x2,%r14d
  402456:	41 83 cb 20          	or     $0x20,%r11d
  40245a:	e9 96 00 00 00       	jmp    4024f5 <fmt_fp+0xcf5>
  40245f:	41 81 fc fe ff ff 7f 	cmp    $0x7ffffffe,%r12d
  402466:	0f 84 a3 f8 ff ff    	je     401d0f <fmt_fp+0x50f>
  40246c:	44 8b 5c 24 18       	mov    0x18(%rsp),%r11d
  402471:	41 83 c6 01          	add    $0x1,%r14d
  402475:	b8 ff ff ff 7f       	mov    $0x7fffffff,%eax
  40247a:	44 29 f0             	sub    %r14d,%eax
  40247d:	41 83 cb 20          	or     $0x20,%r11d
  402481:	4c 63 d0             	movslq %eax,%r10
  402484:	eb 6f                	jmp    4024f5 <fmt_fp+0xcf5>
  402486:	45 89 f4             	mov    %r14d,%r12d
  402489:	49 81 fe fd ff ff 7f 	cmp    $0x7ffffffd,%r14
  402490:	0f 8f 79 f8 ff ff    	jg     401d0f <fmt_fp+0x50f>
  402496:	41 83 c6 02          	add    $0x2,%r14d
  40249a:	41 ba ff ff ff 7f    	mov    $0x7fffffff,%r10d
  4024a0:	45 29 f2             	sub    %r14d,%r10d
  4024a3:	44 39 d7             	cmp    %r10d,%edi
  4024a6:	0f 8f 63 f8 ff ff    	jg     401d0f <fmt_fp+0x50f>
  4024ac:	41 bb 66 00 00 00    	mov    $0x66,%r11d
  4024b2:	85 ff                	test   %edi,%edi
  4024b4:	0f 8e 07 01 00 00    	jle    4025c1 <fmt_fp+0xdc1>
  4024ba:	41 01 fe             	add    %edi,%r14d
  4024bd:	41 bb 66 00 00 00    	mov    $0x66,%r11d
  4024c3:	e9 f9 00 00 00       	jmp    4025c1 <fmt_fp+0xdc1>
  4024c8:	41 81 fc fd ff ff 7f 	cmp    $0x7ffffffd,%r12d
  4024cf:	0f 8f 3a f8 ff ff    	jg     401d0f <fmt_fp+0x50f>
  4024d5:	44 8b 5c 24 18       	mov    0x18(%rsp),%r11d
  4024da:	45 8d 74 24 02       	lea    0x2(%r12),%r14d
  4024df:	41 ba ff ff ff 7f    	mov    $0x7fffffff,%r10d
  4024e5:	45 29 f2             	sub    %r14d,%r10d
  4024e8:	41 83 cb 20          	or     $0x20,%r11d
  4024ec:	41 83 fb 66          	cmp    $0x66,%r11d
  4024f0:	74 b1                	je     4024a3 <fmt_fp+0xca3>
  4024f2:	4d 63 d2             	movslq %r10d,%r10
  4024f5:	89 f9                	mov    %edi,%ecx
  4024f7:	4c 8d 84 24 10 1d 00 	lea    0x1d10(%rsp),%r8
  4024fe:	00 
  4024ff:	49 b9 cd cc cc cc cc 	movabs $0xcccccccccccccccd,%r9
  402506:	cc cc cc 
  402509:	f7 d9                	neg    %ecx
  40250b:	4c 89 c6             	mov    %r8,%rsi
  40250e:	0f 48 cf             	cmovs  %edi,%ecx
  402511:	48 63 c9             	movslq %ecx,%rcx
  402514:	eb 4a                	jmp    402560 <fmt_fp+0xd60>
  402516:	66 66 2e 0f 1f 84 00 	data16 cs nopw 0x0(%rax,%rax,1)
  40251d:	00 00 00 00 
  402521:	66 66 2e 0f 1f 84 00 	data16 cs nopw 0x0(%rax,%rax,1)
  402528:	00 00 00 00 
  40252c:	66 66 2e 0f 1f 84 00 	data16 cs nopw 0x0(%rax,%rax,1)
  402533:	00 00 00 00 
  402537:	66 0f 1f 84 00 00 00 	nopw   0x0(%rax,%rax,1)
  40253e:	00 00 
  402540:	48 89 c8             	mov    %rcx,%rax
  402543:	48 83 ee 01          	sub    $0x1,%rsi
  402547:	49 f7 e1             	mul    %r9
  40254a:	48 c1 ea 03          	shr    $0x3,%rdx
  40254e:	48 8d 04 92          	lea    (%rdx,%rdx,4),%rax
  402552:	48 01 c0             	add    %rax,%rax
  402555:	48 29 c1             	sub    %rax,%rcx
  402558:	83 c1 30             	add    $0x30,%ecx
  40255b:	88 0e                	mov    %cl,(%rsi)
  40255d:	48 89 d1             	mov    %rdx,%rcx
  402560:	48 85 c9             	test   %rcx,%rcx
  402563:	75 db                	jne    402540 <fmt_fp+0xd40>
  402565:	eb 21                	jmp    402588 <fmt_fp+0xd88>
  402567:	66 66 2e 0f 1f 84 00 	data16 cs nopw 0x0(%rax,%rax,1)
  40256e:	00 00 00 00 
  402572:	66 66 2e 0f 1f 84 00 	data16 cs nopw 0x0(%rax,%rax,1)
  402579:	00 00 00 00 
  40257d:	0f 1f 00             	nopl   (%rax)
  402580:	c6 46 ff 30          	movb   $0x30,-0x1(%rsi)
  402584:	48 83 ee 01          	sub    $0x1,%rsi
  402588:	4c 89 c0             	mov    %r8,%rax
  40258b:	48 29 f0             	sub    %rsi,%rax
  40258e:	48 83 f8 01          	cmp    $0x1,%rax
  402592:	7e ec                	jle    402580 <fmt_fp+0xd80>
  402594:	c1 ff 1f             	sar    $0x1f,%edi
  402597:	48 8d 46 fe          	lea    -0x2(%rsi),%rax
  40259b:	0f b6 4c 24 18       	movzbl 0x18(%rsp),%ecx
  4025a0:	83 e7 02             	and    $0x2,%edi
  4025a3:	49 29 c0             	sub    %rax,%r8
  4025a6:	48 89 44 24 30       	mov    %rax,0x30(%rsp)
  4025ab:	83 c7 2b             	add    $0x2b,%edi
  4025ae:	88 4e fe             	mov    %cl,-0x2(%rsi)
  4025b1:	40 88 7e ff          	mov    %dil,-0x1(%rsi)
  4025b5:	4d 39 d0             	cmp    %r10,%r8
  4025b8:	0f 8f 51 f7 ff ff    	jg     401d0f <fmt_fp+0x50f>
  4025be:	45 01 c6             	add    %r8d,%r14d
  4025c1:	8b 4c 24 20          	mov    0x20(%rsp),%ecx
  4025c5:	b8 ff ff ff 7f       	mov    $0x7fffffff,%eax
  4025ca:	29 c8                	sub    %ecx,%eax
  4025cc:	41 39 c6             	cmp    %eax,%r14d
  4025cf:	0f 8f 3a f7 ff ff    	jg     401d0f <fmt_fp+0x50f>
  4025d5:	8b 44 24 20          	mov    0x20(%rsp),%eax
  4025d9:	42 8d 0c 30          	lea    (%rax,%r14,1),%ecx
  4025dd:	8b 44 24 14          	mov    0x14(%rsp),%eax
  4025e1:	89 4c 24 08          	mov    %ecx,0x8(%rsp)
  4025e5:	39 c1                	cmp    %eax,%ecx
  4025e7:	0f 9d 44 24 18       	setge  0x18(%rsp)
  4025ec:	66 f7 44 24 11 20 01 	testw  $0x120,0x11(%rsp)
  4025f3:	75 2d                	jne    402622 <fmt_fp+0xe22>
  4025f5:	39 c1                	cmp    %eax,%ecx
  4025f7:	7c 09                	jl     402602 <fmt_fp+0xe02>
  4025f9:	41 f6 45 00 20       	testb  $0x20,0x0(%r13)
  4025fe:	75 77                	jne    402677 <fmt_fp+0xe77>
  402600:	eb 27                	jmp    402629 <fmt_fp+0xe29>
  402602:	89 c2                	mov    %eax,%edx
  402604:	be 20 00 00 00       	mov    $0x20,%esi
  402609:	4c 89 ef             	mov    %r13,%rdi
  40260c:	44 89 1c 24          	mov    %r11d,(%rsp)
  402610:	e8 0b f1 ff ff       	call   401720 <pad.part.0>
  402615:	41 f6 45 00 20       	testb  $0x20,0x0(%r13)
  40261a:	44 8b 1c 24          	mov    (%rsp),%r11d
  40261e:	75 57                	jne    402677 <fmt_fp+0xe77>
  402620:	eb 07                	jmp    402629 <fmt_fp+0xe29>
  402622:	41 f6 45 00 20       	testb  $0x20,0x0(%r13)
  402627:	75 1a                	jne    402643 <fmt_fp+0xe43>
  402629:	48 63 74 24 20       	movslq 0x20(%rsp),%rsi
  40262e:	48 8b 7c 24 28       	mov    0x28(%rsp),%rdi
  402633:	4c 89 ea             	mov    %r13,%rdx
  402636:	44 89 1c 24          	mov    %r11d,(%rsp)
  40263a:	e8 61 1e 00 00       	call   4044a0 <__fwritex>
  40263f:	44 8b 1c 24          	mov    (%rsp),%r11d
  402643:	8b 44 24 10          	mov    0x10(%rsp),%eax
  402647:	35 00 00 01 00       	xor    $0x10000,%eax
  40264c:	a9 00 20 01 00       	test   $0x12000,%eax
  402651:	75 24                	jne    402677 <fmt_fp+0xe77>
  402653:	80 7c 24 18 00       	cmpb   $0x0,0x18(%rsp)
  402658:	75 1d                	jne    402677 <fmt_fp+0xe77>
  40265a:	8b 4c 24 08          	mov    0x8(%rsp),%ecx
  40265e:	8b 54 24 14          	mov    0x14(%rsp),%edx
  402662:	be 30 00 00 00       	mov    $0x30,%esi
  402667:	4c 89 ef             	mov    %r13,%rdi
  40266a:	44 89 1c 24          	mov    %r11d,(%rsp)
  40266e:	e8 ad f0 ff ff       	call   401720 <pad.part.0>
  402673:	44 8b 1c 24          	mov    (%rsp),%r11d
  402677:	41 83 fb 66          	cmp    $0x66,%r11d
  40267b:	74 1d                	je     40269a <fmt_fp+0xe9a>
  40267d:	48 8d 45 04          	lea    0x4(%rbp),%rax
  402681:	48 39 dd             	cmp    %rbx,%rbp
  402684:	49 89 ef             	mov    %rbp,%r15
  402687:	49 be cd cc cc cc cc 	movabs $0xcccccccccccccccd,%r14
  40268e:	cc cc cc 
  402691:	48 0f 43 d8          	cmovae %rax,%rbx
  402695:	e9 bb 02 00 00       	jmp    402955 <fmt_fp+0x1155>
  40269a:	49 39 ef             	cmp    %rbp,%r15
  40269d:	49 89 ea             	mov    %rbp,%r10
  4026a0:	48 bd cd cc cc cc cc 	movabs $0xcccccccccccccccd,%rbp
  4026a7:	cc cc cc 
  4026aa:	4d 0f 46 d7          	cmovbe %r15,%r10
  4026ae:	4d 89 d6             	mov    %r10,%r14
  4026b1:	e9 87 00 00 00       	jmp    40273d <fmt_fp+0xf3d>
  4026b6:	66 2e 0f 1f 84 00 00 	cs nopw 0x0(%rax,%rax,1)
  4026bd:	00 00 00 
  4026c0:	48 89 f0             	mov    %rsi,%rax
  4026c3:	48 83 ef 01          	sub    $0x1,%rdi
  4026c7:	48 f7 e5             	mul    %rbp
  4026ca:	48 c1 ea 03          	shr    $0x3,%rdx
  4026ce:	48 8d 04 92          	lea    (%rdx,%rdx,4),%rax
  4026d2:	48 01 c0             	add    %rax,%rax
  4026d5:	48 29 c6             	sub    %rax,%rsi
  4026d8:	83 c6 30             	add    $0x30,%esi
  4026db:	40 88 37             	mov    %sil,(%rdi)
  4026de:	48 89 d6             	mov    %rdx,%rsi
  4026e1:	48 85 f6             	test   %rsi,%rsi
  4026e4:	75 da                	jne    4026c0 <fmt_fp+0xec0>
  4026e6:	48 89 f8             	mov    %rdi,%rax
  4026e9:	4c 8d 84 24 10 1d 00 	lea    0x1d10(%rsp),%r8
  4026f0:	00 
  4026f1:	4d 39 d6             	cmp    %r10,%r14
  4026f4:	74 5c                	je     402752 <fmt_fp+0xf52>
  4026f6:	40 f6 c7 01          	test   $0x1,%dil
  4026fa:	74 1f                	je     40271b <fmt_fp+0xf1b>
  4026fc:	49 39 f8             	cmp    %rdi,%r8
  4026ff:	73 1f                	jae    402720 <fmt_fp+0xf20>
  402701:	c6 47 ff 30          	movb   $0x30,-0x1(%rdi)
  402705:	48 8d 47 ff          	lea    -0x1(%rdi),%rax
  402709:	eb 10                	jmp    40271b <fmt_fp+0xf1b>
  40270b:	0f 1f 44 00 00       	nopl   0x0(%rax,%rax,1)
  402710:	c6 40 ff 30          	movb   $0x30,-0x1(%rax)
  402714:	48 83 e8 02          	sub    $0x2,%rax
  402718:	c6 00 30             	movb   $0x30,(%rax)
  40271b:	49 39 c0             	cmp    %rax,%r8
  40271e:	72 f0                	jb     402710 <fmt_fp+0xf10>
  402720:	4c 89 c0             	mov    %r8,%rax
  402723:	31 d2                	xor    %edx,%edx
  402725:	48 29 f8             	sub    %rdi,%rax
  402728:	4c 39 c7             	cmp    %r8,%rdi
  40272b:	48 0f 42 c2          	cmovb  %rdx,%rax
  40272f:	48 01 c7             	add    %rax,%rdi
  402732:	41 f6 45 00 20       	testb  $0x20,0x0(%r13)
  402737:	74 2c                	je     402765 <fmt_fp+0xf65>
  402739:	49 83 c6 04          	add    $0x4,%r14
  40273d:	4d 39 f7             	cmp    %r14,%r15
  402740:	72 3b                	jb     40277d <fmt_fp+0xf7d>
  402742:	48 8d 8c 24 19 1d 00 	lea    0x1d19(%rsp),%rcx
  402749:	00 
  40274a:	41 8b 36             	mov    (%r14),%esi
  40274d:	48 89 cf             	mov    %rcx,%rdi
  402750:	eb 8f                	jmp    4026e1 <fmt_fp+0xee1>
  402752:	48 39 cf             	cmp    %rcx,%rdi
  402755:	75 db                	jne    402732 <fmt_fp+0xf32>
  402757:	c6 47 ff 30          	movb   $0x30,-0x1(%rdi)
  40275b:	48 8d bc 24 18 1d 00 	lea    0x1d18(%rsp),%rdi
  402762:	00 
  402763:	eb cd                	jmp    402732 <fmt_fp+0xf32>
  402765:	48 29 f9             	sub    %rdi,%rcx
  402768:	4c 89 ea             	mov    %r13,%rdx
  40276b:	4c 89 14 24          	mov    %r10,(%rsp)
  40276f:	48 89 ce             	mov    %rcx,%rsi
  402772:	e8 29 1d 00 00       	call   4044a0 <__fwritex>
  402777:	4c 8b 14 24          	mov    (%rsp),%r10
  40277b:	eb bc                	jmp    402739 <fmt_fp+0xf39>
  40277d:	4d 8d 4f 04          	lea    0x4(%r15),%r9
  402781:	49 8d 42 fd          	lea    -0x3(%r10),%rax
  402785:	4d 29 d1             	sub    %r10,%r9
  402788:	49 8d 57 01          	lea    0x1(%r15),%rdx
  40278c:	49 83 e1 fc          	and    $0xfffffffffffffffc,%r9
  402790:	48 39 c2             	cmp    %rax,%rdx
  402793:	b8 00 00 00 00       	mov    $0x0,%eax
  402798:	4c 0f 42 c8          	cmovb  %rax,%r9
  40279c:	8b 44 24 10          	mov    0x10(%rsp),%eax
  4027a0:	83 e0 08             	and    $0x8,%eax
  4027a3:	4f 8d 34 11          	lea    (%r9,%r10,1),%r14
  4027a7:	44 09 e0             	or     %r12d,%eax
  4027aa:	0f 84 a8 02 00 00    	je     402a58 <fmt_fp+0x1258>
  4027b0:	41 f6 45 00 20       	testb  $0x20,0x0(%r13)
  4027b5:	74 0f                	je     4027c6 <fmt_fp+0xfc6>
  4027b7:	48 bd cd cc cc cc cc 	movabs $0xcccccccccccccccd,%rbp
  4027be:	cc cc cc 
  4027c1:	e9 a9 00 00 00       	jmp    40286f <fmt_fp+0x106f>
  4027c6:	4c 89 ea             	mov    %r13,%rdx
  4027c9:	be 01 00 00 00       	mov    $0x1,%esi
  4027ce:	48 8d 3d 84 28 00 00 	lea    0x2884(%rip),%rdi        # 405059 <_fini+0x3e6>
  4027d5:	e8 c6 1c 00 00       	call   4044a0 <__fwritex>
  4027da:	eb db                	jmp    4027b7 <fmt_fp+0xfb7>
  4027dc:	66 66 2e 0f 1f 84 00 	data16 cs nopw 0x0(%rax,%rax,1)
  4027e3:	00 00 00 00 
  4027e7:	66 66 2e 0f 1f 84 00 	data16 cs nopw 0x0(%rax,%rax,1)
  4027ee:	00 00 00 00 
  4027f2:	66 66 2e 0f 1f 84 00 	data16 cs nopw 0x0(%rax,%rax,1)
  4027f9:	00 00 00 00 
  4027fd:	0f 1f 00             	nopl   (%rax)
  402800:	48 89 c8             	mov    %rcx,%rax
  402803:	48 83 ee 01          	sub    $0x1,%rsi
  402807:	48 f7 e5             	mul    %rbp
  40280a:	48 c1 ea 03          	shr    $0x3,%rdx
  40280e:	48 8d 04 92          	lea    (%rdx,%rdx,4),%rax
  402812:	48 01 c0             	add    %rax,%rax
  402815:	48 29 c1             	sub    %rax,%rcx
  402818:	83 c1 30             	add    $0x30,%ecx
  40281b:	88 0e                	mov    %cl,(%rsi)
  40281d:	48 89 d1             	mov    %rdx,%rcx
  402820:	48 85 c9             	test   %rcx,%rcx
  402823:	75 db                	jne    402800 <fmt_fp+0x1000>
  402825:	48 89 f0             	mov    %rsi,%rax
  402828:	4c 8d 84 24 10 1d 00 	lea    0x1d10(%rsp),%r8
  40282f:	00 
  402830:	40 f6 c6 01          	test   $0x1,%sil
  402834:	74 25                	je     40285b <fmt_fp+0x105b>
  402836:	49 39 f0             	cmp    %rsi,%r8
  402839:	73 25                	jae    402860 <fmt_fp+0x1060>
  40283b:	c6 46 ff 30          	movb   $0x30,-0x1(%rsi)
  40283f:	48 8d 46 ff          	lea    -0x1(%rsi),%rax
  402843:	eb 16                	jmp    40285b <fmt_fp+0x105b>
  402845:	66 66 2e 0f 1f 84 00 	data16 cs nopw 0x0(%rax,%rax,1)
  40284c:	00 00 00 00 
  402850:	c6 40 ff 30          	movb   $0x30,-0x1(%rax)
  402854:	48 83 e8 02          	sub    $0x2,%rax
  402858:	c6 00 30             	movb   $0x30,(%rax)
  40285b:	49 39 c0             	cmp    %rax,%r8
  40285e:	72 f0                	jb     402850 <fmt_fp+0x1050>
  402860:	41 f6 45 00 20       	testb  $0x20,0x0(%r13)
  402865:	74 1f                	je     402886 <fmt_fp+0x1086>
  402867:	49 83 c6 04          	add    $0x4,%r14
  40286b:	41 83 ec 09          	sub    $0x9,%r12d
  40286f:	49 39 de             	cmp    %rbx,%r14
  402872:	73 41                	jae    4028b5 <fmt_fp+0x10b5>
  402874:	45 85 e4             	test   %r12d,%r12d
  402877:	7e 3c                	jle    4028b5 <fmt_fp+0x10b5>
  402879:	41 8b 0e             	mov    (%r14),%ecx
  40287c:	48 8d b4 24 19 1d 00 	lea    0x1d19(%rsp),%rsi
  402883:	00 
  402884:	eb 9a                	jmp    402820 <fmt_fp+0x1020>
  402886:	b8 09 00 00 00       	mov    $0x9,%eax
  40288b:	41 39 c4             	cmp    %eax,%r12d
  40288e:	41 0f 4e c4          	cmovle %r12d,%eax
  402892:	31 d2                	xor    %edx,%edx
  402894:	48 63 c8             	movslq %eax,%rcx
  402897:	4c 89 c0             	mov    %r8,%rax
  40289a:	48 29 f0             	sub    %rsi,%rax
  40289d:	4c 39 c6             	cmp    %r8,%rsi
  4028a0:	48 0f 42 c2          	cmovb  %rdx,%rax
  4028a4:	4c 89 ea             	mov    %r13,%rdx
  4028a7:	48 8d 3c 30          	lea    (%rax,%rsi,1),%rdi
  4028ab:	48 89 ce             	mov    %rcx,%rsi
  4028ae:	e8 ed 1b 00 00       	call   4044a0 <__fwritex>
  4028b3:	eb b2                	jmp    402867 <fmt_fp+0x1067>
  4028b5:	41 8d 54 24 09       	lea    0x9(%r12),%edx
  4028ba:	83 fa 09             	cmp    $0x9,%edx
  4028bd:	0f 8e 95 01 00 00    	jle    402a58 <fmt_fp+0x1258>
  4028c3:	b9 09 00 00 00       	mov    $0x9,%ecx
  4028c8:	be 30 00 00 00       	mov    $0x30,%esi
  4028cd:	4c 89 ef             	mov    %r13,%rdi
  4028d0:	e8 4b ee ff ff       	call   401720 <pad.part.0>
  4028d5:	e9 7e 01 00 00       	jmp    402a58 <fmt_fp+0x1258>
  4028da:	48 39 cf             	cmp    %rcx,%rdi
  4028dd:	74 30                	je     40290f <fmt_fp+0x110f>
  4028df:	41 8b 45 00          	mov    0x0(%r13),%eax
  4028e3:	48 89 fa             	mov    %rdi,%rdx
  4028e6:	4c 8d 84 24 10 1d 00 	lea    0x1d10(%rsp),%r8
  4028ed:	00 
  4028ee:	83 e0 20             	and    $0x20,%eax
  4028f1:	49 39 ef             	cmp    %rbp,%r15
  4028f4:	0f 84 b2 00 00 00    	je     4029ac <fmt_fp+0x11ac>
  4028fa:	40 f6 c7 01          	test   $0x1,%dil
  4028fe:	74 2b                	je     40292b <fmt_fp+0x112b>
  402900:	49 39 f8             	cmp    %rdi,%r8
  402903:	73 2b                	jae    402930 <fmt_fp+0x1130>
  402905:	c6 47 ff 30          	movb   $0x30,-0x1(%rdi)
  402909:	48 8d 57 ff          	lea    -0x1(%rdi),%rdx
  40290d:	eb 1c                	jmp    40292b <fmt_fp+0x112b>
  40290f:	c6 47 ff 30          	movb   $0x30,-0x1(%rdi)
  402913:	48 8d bc 24 18 1d 00 	lea    0x1d18(%rsp),%rdi
  40291a:	00 
  40291b:	eb c2                	jmp    4028df <fmt_fp+0x10df>
  40291d:	0f 1f 00             	nopl   (%rax)
  402920:	c6 42 ff 30          	movb   $0x30,-0x1(%rdx)
  402924:	48 83 ea 02          	sub    $0x2,%rdx
  402928:	c6 02 30             	movb   $0x30,(%rdx)
  40292b:	49 39 d0             	cmp    %rdx,%r8
  40292e:	72 f0                	jb     402920 <fmt_fp+0x1120>
  402930:	4c 89 c2             	mov    %r8,%rdx
  402933:	31 f6                	xor    %esi,%esi
  402935:	48 29 fa             	sub    %rdi,%rdx
  402938:	4c 39 c7             	cmp    %r8,%rdi
  40293b:	48 0f 42 d6          	cmovb  %rsi,%rdx
  40293f:	4c 8d 04 3a          	lea    (%rdx,%rdi,1),%r8
  402943:	4c 29 c1             	sub    %r8,%rcx
  402946:	85 c0                	test   %eax,%eax
  402948:	0f 84 d7 00 00 00    	je     402a25 <fmt_fp+0x1225>
  40294e:	41 29 cc             	sub    %ecx,%r12d
  402951:	49 83 c7 04          	add    $0x4,%r15
  402955:	49 39 df             	cmp    %rbx,%r15
  402958:	0f 83 e9 00 00 00    	jae    402a47 <fmt_fp+0x1247>
  40295e:	45 85 e4             	test   %r12d,%r12d
  402961:	0f 88 e0 00 00 00    	js     402a47 <fmt_fp+0x1247>
  402967:	48 8d 8c 24 19 1d 00 	lea    0x1d19(%rsp),%rcx
  40296e:	00 
  40296f:	41 8b 37             	mov    (%r15),%esi
  402972:	48 89 cf             	mov    %rcx,%rdi
  402975:	66 66 2e 0f 1f 84 00 	data16 cs nopw 0x0(%rax,%rax,1)
  40297c:	00 00 00 00 
  402980:	48 85 f6             	test   %rsi,%rsi
  402983:	0f 84 51 ff ff ff    	je     4028da <fmt_fp+0x10da>
  402989:	48 89 f0             	mov    %rsi,%rax
  40298c:	48 83 ef 01          	sub    $0x1,%rdi
  402990:	49 f7 e6             	mul    %r14
  402993:	48 c1 ea 03          	shr    $0x3,%rdx
  402997:	48 8d 04 92          	lea    (%rdx,%rdx,4),%rax
  40299b:	48 01 c0             	add    %rax,%rax
  40299e:	48 29 c6             	sub    %rax,%rsi
  4029a1:	83 c6 30             	add    $0x30,%esi
  4029a4:	40 88 37             	mov    %sil,(%rdi)
  4029a7:	48 89 d6             	mov    %rdx,%rsi
  4029aa:	eb d4                	jmp    402980 <fmt_fp+0x1180>
  4029ac:	4c 8d 47 01          	lea    0x1(%rdi),%r8
  4029b0:	85 c0                	test   %eax,%eax
  4029b2:	74 05                	je     4029b9 <fmt_fp+0x11b9>
  4029b4:	4c 29 c1             	sub    %r8,%rcx
  4029b7:	eb 95                	jmp    40294e <fmt_fp+0x114e>
  4029b9:	4c 89 ea             	mov    %r13,%rdx
  4029bc:	be 01 00 00 00       	mov    $0x1,%esi
  4029c1:	48 89 4c 24 20       	mov    %rcx,0x20(%rsp)
  4029c6:	4c 89 04 24          	mov    %r8,(%rsp)
  4029ca:	e8 d1 1a 00 00       	call   4044a0 <__fwritex>
  4029cf:	8b 54 24 10          	mov    0x10(%rsp),%edx
  4029d3:	41 8b 45 00          	mov    0x0(%r13),%eax
  4029d7:	4c 8b 04 24          	mov    (%rsp),%r8
  4029db:	48 8b 4c 24 20       	mov    0x20(%rsp),%rcx
  4029e0:	83 e2 08             	and    $0x8,%edx
  4029e3:	83 e0 20             	and    $0x20,%eax
  4029e6:	44 09 e2             	or     %r12d,%edx
  4029e9:	0f 84 54 ff ff ff    	je     402943 <fmt_fp+0x1143>
  4029ef:	85 c0                	test   %eax,%eax
  4029f1:	75 c1                	jne    4029b4 <fmt_fp+0x11b4>
  4029f3:	4c 89 ea             	mov    %r13,%rdx
  4029f6:	be 01 00 00 00       	mov    $0x1,%esi
  4029fb:	48 8d 3d 57 26 00 00 	lea    0x2657(%rip),%rdi        # 405059 <_fini+0x3e6>
  402a02:	48 89 4c 24 20       	mov    %rcx,0x20(%rsp)
  402a07:	4c 89 04 24          	mov    %r8,(%rsp)
  402a0b:	e8 90 1a 00 00       	call   4044a0 <__fwritex>
  402a10:	41 8b 45 00          	mov    0x0(%r13),%eax
  402a14:	48 8b 4c 24 20       	mov    0x20(%rsp),%rcx
  402a19:	4c 8b 04 24          	mov    (%rsp),%r8
  402a1d:	83 e0 20             	and    $0x20,%eax
  402a20:	e9 1e ff ff ff       	jmp    402943 <fmt_fp+0x1143>
  402a25:	49 63 f4             	movslq %r12d,%rsi
  402a28:	4c 89 ea             	mov    %r13,%rdx
  402a2b:	4c 89 c7             	mov    %r8,%rdi
  402a2e:	48 89 0c 24          	mov    %rcx,(%rsp)
  402a32:	48 39 ce             	cmp    %rcx,%rsi
  402a35:	48 0f 4f f1          	cmovg  %rcx,%rsi
  402a39:	e8 62 1a 00 00       	call   4044a0 <__fwritex>
  402a3e:	48 8b 0c 24          	mov    (%rsp),%rcx
  402a42:	e9 07 ff ff ff       	jmp    40294e <fmt_fp+0x114e>
  402a47:	41 8d 54 24 12       	lea    0x12(%r12),%edx
  402a4c:	83 fa 12             	cmp    $0x12,%edx
  402a4f:	7f 4e                	jg     402a9f <fmt_fp+0x129f>
  402a51:	41 f6 45 00 20       	testb  $0x20,0x0(%r13)
  402a56:	74 5b                	je     402ab3 <fmt_fp+0x12b3>
  402a58:	8b 44 24 10          	mov    0x10(%rsp),%eax
  402a5c:	80 f4 20             	xor    $0x20,%ah
  402a5f:	a9 00 20 01 00       	test   $0x12000,%eax
  402a64:	75 07                	jne    402a6d <fmt_fp+0x126d>
  402a66:	80 7c 24 18 00       	cmpb   $0x0,0x18(%rsp)
  402a6b:	74 60                	je     402acd <fmt_fp+0x12cd>
  402a6d:	8b 5c 24 08          	mov    0x8(%rsp),%ebx
  402a71:	8b 44 24 14          	mov    0x14(%rsp),%eax
  402a75:	39 c3                	cmp    %eax,%ebx
  402a77:	0f 4d c3             	cmovge %ebx,%eax
  402a7a:	48 8b 94 24 38 1d 00 	mov    0x1d38(%rsp),%rdx
  402a81:	00 
  402a82:	64 48 2b 14 25 28 00 	sub    %fs:0x28,%rdx
  402a89:	00 00 
  402a8b:	75 57                	jne    402ae4 <fmt_fp+0x12e4>
  402a8d:	48 81 c4 48 1d 00 00 	add    $0x1d48,%rsp
  402a94:	5b                   	pop    %rbx
  402a95:	5d                   	pop    %rbp
  402a96:	41 5c                	pop    %r12
  402a98:	41 5d                	pop    %r13
  402a9a:	41 5e                	pop    %r14
  402a9c:	41 5f                	pop    %r15
  402a9e:	c3                   	ret
  402a9f:	b9 12 00 00 00       	mov    $0x12,%ecx
  402aa4:	be 30 00 00 00       	mov    $0x30,%esi
  402aa9:	4c 89 ef             	mov    %r13,%rdi
  402aac:	e8 6f ec ff ff       	call   401720 <pad.part.0>
  402ab1:	eb 9e                	jmp    402a51 <fmt_fp+0x1251>
  402ab3:	48 8b 7c 24 30       	mov    0x30(%rsp),%rdi
  402ab8:	48 8d b4 24 10 1d 00 	lea    0x1d10(%rsp),%rsi
  402abf:	00 
  402ac0:	4c 89 ea             	mov    %r13,%rdx
  402ac3:	48 29 fe             	sub    %rdi,%rsi
  402ac6:	e8 d5 19 00 00       	call   4044a0 <__fwritex>
  402acb:	eb 8b                	jmp    402a58 <fmt_fp+0x1258>
  402acd:	8b 4c 24 08          	mov    0x8(%rsp),%ecx
  402ad1:	8b 54 24 14          	mov    0x14(%rsp),%edx
  402ad5:	be 20 00 00 00       	mov    $0x20,%esi
  402ada:	4c 89 ef             	mov    %r13,%rdi
  402add:	e8 3e ec ff ff       	call   401720 <pad.part.0>
  402ae2:	eb 89                	jmp    402a6d <fmt_fp+0x126d>
  402ae4:	e8 8e 15 00 00       	call   404077 <__stack_chk_fail>
  402ae9:	66 2e 0f 1f 84 00 00 	cs nopw 0x0(%rax,%rax,1)
  402af0:	00 00 00 
  402af3:	66 2e 0f 1f 84 00 00 	cs nopw 0x0(%rax,%rax,1)
  402afa:	00 00 00 
  402afd:	0f 1f 00             	nopl   (%rax)

0000000000402b00 <printf_core>:
  402b00:	41 57                	push   %r15
  402b02:	49 89 fb             	mov    %rdi,%r11
  402b05:	4c 8d 15 d4 26 00 00 	lea    0x26d4(%rip),%r10        # 4051e0 <states>
  402b0c:	41 56                	push   %r14
  402b0e:	49 89 f6             	mov    %rsi,%r14
  402b11:	41 55                	push   %r13
  402b13:	41 54                	push   %r12
  402b15:	45 31 e4             	xor    %r12d,%r12d
  402b18:	55                   	push   %rbp
  402b19:	53                   	push   %rbx
  402b1a:	48 81 ec 98 00 00 00 	sub    $0x98,%rsp
  402b21:	48 89 54 24 10       	mov    %rdx,0x10(%rsp)
  402b26:	48 89 4c 24 30       	mov    %rcx,0x30(%rsp)
  402b2b:	4c 89 44 24 28       	mov    %r8,0x28(%rsp)
  402b30:	64 4c 8b 3c 25 28 00 	mov    %fs:0x28,%r15
  402b37:	00 00 
  402b39:	4c 89 bc 24 88 00 00 	mov    %r15,0x88(%rsp)
  402b40:	00 
  402b41:	45 31 ff             	xor    %r15d,%r15d
  402b44:	c7 44 24 48 00 00 00 	movl   $0x0,0x48(%rsp)
  402b4b:	00 
  402b4c:	eb 73                	jmp    402bc1 <printf_core+0xc1>
  402b4e:	66 66 2e 0f 1f 84 00 	data16 cs nopw 0x0(%rax,%rax,1)
  402b55:	00 00 00 00 
  402b59:	0f 1f 80 00 00 00 00 	nopl   0x0(%rax)
  402b60:	41 0f b6 45 01       	movzbl 0x1(%r13),%eax
  402b65:	49 83 c5 01          	add    $0x1,%r13
  402b69:	84 c0                	test   %al,%al
  402b6b:	74 04                	je     402b71 <printf_core+0x71>
  402b6d:	3c 25                	cmp    $0x25,%al
  402b6f:	75 ef                	jne    402b60 <printf_core+0x60>
  402b71:	4c 89 eb             	mov    %r13,%rbx
  402b74:	eb 12                	jmp    402b88 <printf_core+0x88>
  402b76:	66 2e 0f 1f 84 00 00 	cs nopw 0x0(%rax,%rax,1)
  402b7d:	00 00 00 
  402b80:	49 83 c5 01          	add    $0x1,%r13
  402b84:	48 83 c3 02          	add    $0x2,%rbx
  402b88:	80 3b 25             	cmpb   $0x25,(%rbx)
  402b8b:	75 06                	jne    402b93 <printf_core+0x93>
  402b8d:	80 7b 01 25          	cmpb   $0x25,0x1(%rbx)
  402b91:	74 ed                	je     402b80 <printf_core+0x80>
  402b93:	44 89 c0             	mov    %r8d,%eax
  402b96:	4d 29 f5             	sub    %r14,%r13
  402b99:	44 29 e0             	sub    %r12d,%eax
  402b9c:	89 44 24 08          	mov    %eax,0x8(%rsp)
  402ba0:	48 98                	cltq
  402ba2:	49 39 c5             	cmp    %rax,%r13
  402ba5:	0f 8f 60 02 00 00    	jg     402e0b <printf_core+0x30b>
  402bab:	45 89 ef             	mov    %r13d,%r15d
  402bae:	4d 85 db             	test   %r11,%r11
  402bb1:	74 06                	je     402bb9 <printf_core+0xb9>
  402bb3:	41 f6 03 20          	testb  $0x20,(%r11)
  402bb7:	74 36                	je     402bef <printf_core+0xef>
  402bb9:	45 85 ed             	test   %r13d,%r13d
  402bbc:	74 56                	je     402c14 <printf_core+0x114>
  402bbe:	49 89 de             	mov    %rbx,%r14
  402bc1:	b8 ff ff ff 7f       	mov    $0x7fffffff,%eax
  402bc6:	44 29 e0             	sub    %r12d,%eax
  402bc9:	44 39 f8             	cmp    %r15d,%eax
  402bcc:	0f 8c 39 02 00 00    	jl     402e0b <printf_core+0x30b>
  402bd2:	41 b8 ff ff ff 7f    	mov    $0x7fffffff,%r8d
  402bd8:	41 0f b6 06          	movzbl (%r14),%eax
  402bdc:	45 01 fc             	add    %r15d,%r12d
  402bdf:	84 c0                	test   %al,%al
  402be1:	0f 84 55 0d 00 00    	je     40393c <printf_core+0xe3c>
  402be7:	4d 89 f5             	mov    %r14,%r13
  402bea:	e9 7a ff ff ff       	jmp    402b69 <printf_core+0x69>
  402bef:	4c 89 da             	mov    %r11,%rdx
  402bf2:	49 63 f5             	movslq %r13d,%rsi
  402bf5:	4c 89 f7             	mov    %r14,%rdi
  402bf8:	4c 89 1c 24          	mov    %r11,(%rsp)
  402bfc:	e8 9f 18 00 00       	call   4044a0 <__fwritex>
  402c01:	4c 8b 1c 24          	mov    (%rsp),%r11
  402c05:	4c 8d 15 d4 25 00 00 	lea    0x25d4(%rip),%r10        # 4051e0 <states>
  402c0c:	41 b8 ff ff ff 7f    	mov    $0x7fffffff,%r8d
  402c12:	eb a5                	jmp    402bb9 <printf_core+0xb9>
  402c14:	0f be 43 01          	movsbl 0x1(%rbx),%eax
  402c18:	8d 50 d0             	lea    -0x30(%rax),%edx
  402c1b:	89 c7                	mov    %eax,%edi
  402c1d:	83 fa 09             	cmp    $0x9,%edx
  402c20:	77 06                	ja     402c28 <printf_core+0x128>
  402c22:	80 7b 02 24          	cmpb   $0x24,0x2(%rbx)
  402c26:	74 1a                	je     402c42 <printf_core+0x142>
  402c28:	c7 44 24 18 ff ff ff 	movl   $0xffffffff,0x18(%rsp)
  402c2f:	ff 
  402c30:	48 83 c3 01          	add    $0x1,%rbx
  402c34:	31 ed                	xor    %ebp,%ebp
  402c36:	ba 89 28 01 00       	mov    $0x12889,%edx
  402c3b:	be 01 00 00 00       	mov    $0x1,%esi
  402c40:	eb 2d                	jmp    402c6f <printf_core+0x16f>
  402c42:	0f be 43 03          	movsbl 0x3(%rbx),%eax
  402c46:	89 54 24 18          	mov    %edx,0x18(%rsp)
  402c4a:	48 83 c3 03          	add    $0x3,%rbx
  402c4e:	c7 44 24 48 01 00 00 	movl   $0x1,0x48(%rsp)
  402c55:	00 
  402c56:	89 c7                	mov    %eax,%edi
  402c58:	eb da                	jmp    402c34 <printf_core+0x134>
  402c5a:	66 0f 1f 44 00 00    	nopw   0x0(%rax,%rax,1)
  402c60:	89 f0                	mov    %esi,%eax
  402c62:	48 83 c3 01          	add    $0x1,%rbx
  402c66:	d3 e0                	shl    %cl,%eax
  402c68:	09 c5                	or     %eax,%ebp
  402c6a:	0f be 03             	movsbl (%rbx),%eax
  402c6d:	89 c7                	mov    %eax,%edi
  402c6f:	8d 48 e0             	lea    -0x20(%rax),%ecx
  402c72:	83 f9 1f             	cmp    $0x1f,%ecx
  402c75:	0f 87 a0 01 00 00    	ja     402e1b <printf_core+0x31b>
  402c7b:	0f a3 ca             	bt     %ecx,%edx
  402c7e:	72 e0                	jb     402c60 <printf_core+0x160>
  402c80:	40 80 ff 2a          	cmp    $0x2a,%dil
  402c84:	0f 85 91 01 00 00    	jne    402e1b <printf_core+0x31b>
  402c8a:	48 0f be 43 01       	movsbq 0x1(%rbx),%rax
  402c8f:	48 89 c7             	mov    %rax,%rdi
  402c92:	83 e8 30             	sub    $0x30,%eax
  402c95:	83 f8 09             	cmp    $0x9,%eax
  402c98:	0f 87 81 00 00 00    	ja     402d1f <printf_core+0x21f>
  402c9e:	80 7b 02 24          	cmpb   $0x24,0x2(%rbx)
  402ca2:	74 2d                	je     402cd1 <printf_core+0x1d1>
  402ca4:	8b 44 24 48          	mov    0x48(%rsp),%eax
  402ca8:	85 c0                	test   %eax,%eax
  402caa:	0f 85 07 0d 00 00    	jne    4039b7 <printf_core+0xeb7>
  402cb0:	48 83 c3 01          	add    $0x1,%rbx
  402cb4:	4d 85 db             	test   %r11,%r11
  402cb7:	0f 85 80 00 00 00    	jne    402d3d <printf_core+0x23d>
  402cbd:	44 89 6c 24 20       	mov    %r13d,0x20(%rsp)
  402cc2:	45 89 e9             	mov    %r13d,%r9d
  402cc5:	c7 04 24 ff ff ff ff 	movl   $0xffffffff,(%rsp)
  402ccc:	e9 d6 02 00 00       	jmp    402fa7 <printf_core+0x4a7>
  402cd1:	48 8d 43 03          	lea    0x3(%rbx),%rax
  402cd5:	4d 85 db             	test   %r11,%r11
  402cd8:	74 1e                	je     402cf8 <printf_core+0x1f8>
  402cda:	48 8b 4c 24 30       	mov    0x30(%rsp),%rcx
  402cdf:	48 c1 e7 04          	shl    $0x4,%rdi
  402ce3:	c7 44 24 48 01 00 00 	movl   $0x1,0x48(%rsp)
  402cea:	00 
  402ceb:	48 89 c3             	mov    %rax,%rbx
  402cee:	44 8b 8c 39 00 fd ff 	mov    -0x300(%rcx,%rdi,1),%r9d
  402cf5:	ff 
  402cf6:	eb 67                	jmp    402d5f <printf_core+0x25f>
  402cf8:	48 8b 4c 24 28       	mov    0x28(%rsp),%rcx
  402cfd:	c7 44 24 48 01 00 00 	movl   $0x1,0x48(%rsp)
  402d04:	00 
  402d05:	45 89 e9             	mov    %r13d,%r9d
  402d08:	c7 84 b9 40 ff ff ff 	movl   $0xa,-0xc0(%rcx,%rdi,4)
  402d0f:	0a 00 00 00 
  402d13:	0f b6 7b 03          	movzbl 0x3(%rbx),%edi
  402d17:	48 89 c3             	mov    %rax,%rbx
  402d1a:	e9 07 01 00 00       	jmp    402e26 <printf_core+0x326>
  402d1f:	44 8b 4c 24 48       	mov    0x48(%rsp),%r9d
  402d24:	45 85 c9             	test   %r9d,%r9d
  402d27:	0f 85 8a 0c 00 00    	jne    4039b7 <printf_core+0xeb7>
  402d2d:	48 83 c3 01          	add    $0x1,%rbx
  402d31:	45 89 e9             	mov    %r13d,%r9d
  402d34:	4d 85 db             	test   %r11,%r11
  402d37:	0f 84 e9 00 00 00    	je     402e26 <printf_core+0x326>
  402d3d:	48 8b 7c 24 10       	mov    0x10(%rsp),%rdi
  402d42:	8b 07                	mov    (%rdi),%eax
  402d44:	83 f8 2f             	cmp    $0x2f,%eax
  402d47:	77 30                	ja     402d79 <printf_core+0x279>
  402d49:	89 c2                	mov    %eax,%edx
  402d4b:	83 c0 08             	add    $0x8,%eax
  402d4e:	48 03 57 10          	add    0x10(%rdi),%rdx
  402d52:	89 07                	mov    %eax,(%rdi)
  402d54:	c7 44 24 48 00 00 00 	movl   $0x0,0x48(%rsp)
  402d5b:	00 
  402d5c:	44 8b 0a             	mov    (%rdx),%r9d
  402d5f:	0f b6 3b             	movzbl (%rbx),%edi
  402d62:	45 85 c9             	test   %r9d,%r9d
  402d65:	0f 89 bb 00 00 00    	jns    402e26 <printf_core+0x326>
  402d6b:	81 cd 00 20 00 00    	or     $0x2000,%ebp
  402d71:	41 f7 d9             	neg    %r9d
  402d74:	e9 ad 00 00 00       	jmp    402e26 <printf_core+0x326>
  402d79:	48 8b 7c 24 10       	mov    0x10(%rsp),%rdi
  402d7e:	48 8b 57 08          	mov    0x8(%rdi),%rdx
  402d82:	48 8d 42 08          	lea    0x8(%rdx),%rax
  402d86:	48 89 47 08          	mov    %rax,0x8(%rdi)
  402d8a:	eb c8                	jmp    402d54 <printf_core+0x254>
  402d8c:	29 d0                	sub    %edx,%eax
  402d8e:	41 89 c1             	mov    %eax,%r9d
  402d91:	eb 33                	jmp    402dc6 <printf_core+0x2c6>
  402d93:	66 66 2e 0f 1f 84 00 	data16 cs nopw 0x0(%rax,%rax,1)
  402d9a:	00 00 00 00 
  402d9e:	66 66 2e 0f 1f 84 00 	data16 cs nopw 0x0(%rax,%rax,1)
  402da5:	00 00 00 00 
  402da9:	66 66 2e 0f 1f 84 00 	data16 cs nopw 0x0(%rax,%rax,1)
  402db0:	00 00 00 00 
  402db4:	66 66 2e 0f 1f 84 00 	data16 cs nopw 0x0(%rax,%rax,1)
  402dbb:	00 00 00 00 
  402dbf:	90                   	nop
  402dc0:	41 b9 ff ff ff ff    	mov    $0xffffffff,%r9d
  402dc6:	0f be 43 01          	movsbl 0x1(%rbx),%eax
  402dca:	48 83 c3 01          	add    $0x1,%rbx
  402dce:	89 c7                	mov    %eax,%edi
  402dd0:	83 e8 30             	sub    $0x30,%eax
  402dd3:	83 f8 09             	cmp    $0x9,%eax
  402dd6:	77 48                	ja     402e20 <printf_core+0x320>
  402dd8:	41 81 f9 cc cc cc 0c 	cmp    $0xccccccc,%r9d
  402ddf:	77 df                	ja     402dc0 <printf_core+0x2c0>
  402de1:	41 6b d1 f6          	imul   $0xfffffff6,%r9d,%edx
  402de5:	8d 8a ff ff ff 7f    	lea    0x7fffffff(%rdx),%ecx
  402deb:	39 c8                	cmp    %ecx,%eax
  402ded:	7e 9d                	jle    402d8c <printf_core+0x28c>
  402def:	0f be 43 01          	movsbl 0x1(%rbx),%eax
  402df3:	83 e8 30             	sub    $0x30,%eax
  402df6:	83 f8 09             	cmp    $0x9,%eax
  402df9:	77 10                	ja     402e0b <printf_core+0x30b>
  402dfb:	0f be 43 02          	movsbl 0x2(%rbx),%eax
  402dff:	48 83 c3 02          	add    $0x2,%rbx
  402e03:	83 e8 30             	sub    $0x30,%eax
  402e06:	83 f8 09             	cmp    $0x9,%eax
  402e09:	76 b5                	jbe    402dc0 <printf_core+0x2c0>
  402e0b:	e8 69 12 00 00       	call   404079 <__errno_location>
  402e10:	c7 00 4b 00 00 00    	movl   $0x4b,(%rax)
  402e16:	e9 a7 0b 00 00       	jmp    4039c2 <printf_core+0xec2>
  402e1b:	45 89 e9             	mov    %r13d,%r9d
  402e1e:	eb b0                	jmp    402dd0 <printf_core+0x2d0>
  402e20:	41 83 f9 ff          	cmp    $0xffffffff,%r9d
  402e24:	74 e5                	je     402e0b <printf_core+0x30b>
  402e26:	40 80 ff 2e          	cmp    $0x2e,%dil
  402e2a:	0f 85 6b 01 00 00    	jne    402f9b <printf_core+0x49b>
  402e30:	0f be 43 01          	movsbl 0x1(%rbx),%eax
  402e34:	3c 2a                	cmp    $0x2a,%al
  402e36:	0f 85 c3 00 00 00    	jne    402eff <printf_core+0x3ff>
  402e3c:	48 0f be 43 02       	movsbq 0x2(%rbx),%rax
  402e41:	48 89 c2             	mov    %rax,%rdx
  402e44:	83 e8 30             	sub    $0x30,%eax
  402e47:	83 f8 09             	cmp    $0x9,%eax
  402e4a:	77 06                	ja     402e52 <printf_core+0x352>
  402e4c:	80 7b 03 24          	cmpb   $0x24,0x3(%rbx)
  402e50:	74 43                	je     402e95 <printf_core+0x395>
  402e52:	8b 74 24 48          	mov    0x48(%rsp),%esi
  402e56:	85 f6                	test   %esi,%esi
  402e58:	0f 85 59 0b 00 00    	jne    4039b7 <printf_core+0xeb7>
  402e5e:	4d 85 db             	test   %r11,%r11
  402e61:	0f 84 8a 00 00 00    	je     402ef1 <printf_core+0x3f1>
  402e67:	48 8b 7c 24 10       	mov    0x10(%rsp),%rdi
  402e6c:	8b 07                	mov    (%rdi),%eax
  402e6e:	83 f8 2f             	cmp    $0x2f,%eax
  402e71:	77 6b                	ja     402ede <printf_core+0x3de>
  402e73:	89 c2                	mov    %eax,%edx
  402e75:	83 c0 08             	add    $0x8,%eax
  402e78:	48 03 57 10          	add    0x10(%rdi),%rdx
  402e7c:	89 07                	mov    %eax,(%rdi)
  402e7e:	8b 02                	mov    (%rdx),%eax
  402e80:	89 04 24             	mov    %eax,(%rsp)
  402e83:	f7 d0                	not    %eax
  402e85:	c1 e8 1f             	shr    $0x1f,%eax
  402e88:	89 44 24 20          	mov    %eax,0x20(%rsp)
  402e8c:	48 83 c3 02          	add    $0x2,%rbx
  402e90:	e9 12 01 00 00       	jmp    402fa7 <printf_core+0x4a7>
  402e95:	4d 85 db             	test   %r11,%r11
  402e98:	74 26                	je     402ec0 <printf_core+0x3c0>
  402e9a:	48 8b 44 24 30       	mov    0x30(%rsp),%rax
  402e9f:	48 c1 e2 04          	shl    $0x4,%rdx
  402ea3:	48 8b 84 10 00 fd ff 	mov    -0x300(%rax,%rdx,1),%rax
  402eaa:	ff 
  402eab:	89 04 24             	mov    %eax,(%rsp)
  402eae:	f7 d0                	not    %eax
  402eb0:	c1 e8 1f             	shr    $0x1f,%eax
  402eb3:	89 44 24 20          	mov    %eax,0x20(%rsp)
  402eb7:	48 83 c3 04          	add    $0x4,%rbx
  402ebb:	e9 e7 00 00 00       	jmp    402fa7 <printf_core+0x4a7>
  402ec0:	48 8b 44 24 28       	mov    0x28(%rsp),%rax
  402ec5:	44 89 2c 24          	mov    %r13d,(%rsp)
  402ec9:	c7 44 24 20 01 00 00 	movl   $0x1,0x20(%rsp)
  402ed0:	00 
  402ed1:	c7 84 90 40 ff ff ff 	movl   $0xa,-0xc0(%rax,%rdx,4)
  402ed8:	0a 00 00 00 
  402edc:	eb d9                	jmp    402eb7 <printf_core+0x3b7>
  402ede:	48 8b 7c 24 10       	mov    0x10(%rsp),%rdi
  402ee3:	48 8b 57 08          	mov    0x8(%rdi),%rdx
  402ee7:	48 8d 42 08          	lea    0x8(%rdx),%rax
  402eeb:	48 89 47 08          	mov    %rax,0x8(%rdi)
  402eef:	eb 8d                	jmp    402e7e <printf_core+0x37e>
  402ef1:	44 89 2c 24          	mov    %r13d,(%rsp)
  402ef5:	c7 44 24 20 01 00 00 	movl   $0x1,0x20(%rsp)
  402efc:	00 
  402efd:	eb 8d                	jmp    402e8c <printf_core+0x38c>
  402eff:	44 89 2c 24          	mov    %r13d,(%rsp)
  402f03:	48 83 c3 01          	add    $0x1,%rbx
  402f07:	eb 46                	jmp    402f4f <printf_core+0x44f>
  402f09:	29 d0                	sub    %edx,%eax
  402f0b:	89 04 24             	mov    %eax,(%rsp)
  402f0e:	eb 37                	jmp    402f47 <printf_core+0x447>
  402f10:	66 66 2e 0f 1f 84 00 	data16 cs nopw 0x0(%rax,%rax,1)
  402f17:	00 00 00 00 
  402f1b:	66 66 2e 0f 1f 84 00 	data16 cs nopw 0x0(%rax,%rax,1)
  402f22:	00 00 00 00 
  402f26:	66 66 2e 0f 1f 84 00 	data16 cs nopw 0x0(%rax,%rax,1)
  402f2d:	00 00 00 00 
  402f31:	66 66 2e 0f 1f 84 00 	data16 cs nopw 0x0(%rax,%rax,1)
  402f38:	00 00 00 00 
  402f3c:	0f 1f 40 00          	nopl   0x0(%rax)
  402f40:	c7 04 24 ff ff ff ff 	movl   $0xffffffff,(%rsp)
  402f47:	0f be 43 01          	movsbl 0x1(%rbx),%eax
  402f4b:	48 83 c3 01          	add    $0x1,%rbx
  402f4f:	83 e8 30             	sub    $0x30,%eax
  402f52:	83 f8 09             	cmp    $0x9,%eax
  402f55:	77 3a                	ja     402f91 <printf_core+0x491>
  402f57:	8b 3c 24             	mov    (%rsp),%edi
  402f5a:	81 ff cc cc cc 0c    	cmp    $0xccccccc,%edi
  402f60:	77 de                	ja     402f40 <printf_core+0x440>
  402f62:	6b d7 f6             	imul   $0xfffffff6,%edi,%edx
  402f65:	8d 8a ff ff ff 7f    	lea    0x7fffffff(%rdx),%ecx
  402f6b:	39 c8                	cmp    %ecx,%eax
  402f6d:	7e 9a                	jle    402f09 <printf_core+0x409>
  402f6f:	0f be 43 01          	movsbl 0x1(%rbx),%eax
  402f73:	48 8d 53 01          	lea    0x1(%rbx),%rdx
  402f77:	83 e8 30             	sub    $0x30,%eax
  402f7a:	83 f8 09             	cmp    $0x9,%eax
  402f7d:	77 2c                	ja     402fab <printf_core+0x4ab>
  402f7f:	0f be 43 02          	movsbl 0x2(%rbx),%eax
  402f83:	48 83 c3 02          	add    $0x2,%rbx
  402f87:	83 e8 30             	sub    $0x30,%eax
  402f8a:	83 f8 09             	cmp    $0x9,%eax
  402f8d:	76 b1                	jbe    402f40 <printf_core+0x440>
  402f8f:	eb 1d                	jmp    402fae <printf_core+0x4ae>
  402f91:	c7 44 24 20 01 00 00 	movl   $0x1,0x20(%rsp)
  402f98:	00 
  402f99:	eb 0c                	jmp    402fa7 <printf_core+0x4a7>
  402f9b:	44 89 6c 24 20       	mov    %r13d,0x20(%rsp)
  402fa0:	c7 04 24 ff ff ff ff 	movl   $0xffffffff,(%rsp)
  402fa7:	31 c0                	xor    %eax,%eax
  402fa9:	eb 17                	jmp    402fc2 <printf_core+0x4c2>
  402fab:	48 89 d3             	mov    %rdx,%rbx
  402fae:	c7 44 24 20 01 00 00 	movl   $0x1,0x20(%rsp)
  402fb5:	00 
  402fb6:	c7 04 24 ff ff ff ff 	movl   $0xffffffff,(%rsp)
  402fbd:	eb e8                	jmp    402fa7 <printf_core+0x4a7>
  402fbf:	90                   	nop
  402fc0:	89 f0                	mov    %esi,%eax
  402fc2:	0f be 13             	movsbl (%rbx),%edx
  402fc5:	83 ea 41             	sub    $0x41,%edx
  402fc8:	83 fa 39             	cmp    $0x39,%edx
  402fcb:	0f 87 e6 09 00 00    	ja     4039b7 <printf_core+0xeb7>
  402fd1:	89 c1                	mov    %eax,%ecx
  402fd3:	48 63 d2             	movslq %edx,%rdx
  402fd6:	48 83 c3 01          	add    $0x1,%rbx
  402fda:	48 6b f1 3a          	imul   $0x3a,%rcx,%rsi
  402fde:	4c 01 d6             	add    %r10,%rsi
  402fe1:	0f b6 34 16          	movzbl (%rsi,%rdx,1),%esi
  402fe5:	8d 56 ff             	lea    -0x1(%rsi),%edx
  402fe8:	83 fa 07             	cmp    $0x7,%edx
  402feb:	76 d3                	jbe    402fc0 <printf_core+0x4c0>
  402fed:	85 f6                	test   %esi,%esi
  402fef:	0f 84 c2 09 00 00    	je     4039b7 <printf_core+0xeb7>
  402ff5:	83 fe 1b             	cmp    $0x1b,%esi
  402ff8:	74 7c                	je     403076 <printf_core+0x576>
  402ffa:	8b 7c 24 18          	mov    0x18(%rsp),%edi
  402ffe:	83 ff ff             	cmp    $0xffffffff,%edi
  403001:	0f 84 91 00 00 00    	je     403098 <printf_core+0x598>
  403007:	48 63 d7             	movslq %edi,%rdx
  40300a:	4d 85 db             	test   %r11,%r11
  40300d:	74 79                	je     403088 <printf_core+0x588>
  40300f:	48 8b 7c 24 30       	mov    0x30(%rsp),%rdi
  403014:	48 c1 e2 04          	shl    $0x4,%rdx
  403018:	66 0f 6f 04 17       	movdqa (%rdi,%rdx,1),%xmm0
  40301d:	0f 29 44 24 50       	movaps %xmm0,0x50(%rsp)
  403022:	41 f6 03 20          	testb  $0x20,(%r11)
  403026:	0f 85 96 09 00 00    	jne    4039c2 <printf_core+0xec2>
  40302c:	0f be 53 ff          	movsbl -0x1(%rbx),%edx
  403030:	89 d6                	mov    %edx,%esi
  403032:	85 c0                	test   %eax,%eax
  403034:	74 13                	je     403049 <printf_core+0x549>
  403036:	89 d7                	mov    %edx,%edi
  403038:	83 e6 df             	and    $0xffffffdf,%esi
  40303b:	83 e7 0f             	and    $0xf,%edi
  40303e:	40 0f be f6          	movsbl %sil,%esi
  403042:	40 80 ff 03          	cmp    $0x3,%dil
  403046:	0f 44 d6             	cmove  %esi,%edx
  403049:	89 ee                	mov    %ebp,%esi
  40304b:	81 e6 ff ff fe ff    	and    $0xfffeffff,%esi
  403051:	f7 c5 00 20 00 00    	test   $0x2000,%ebp
  403057:	0f 45 ee             	cmovne %esi,%ebp
  40305a:	8d 72 bf             	lea    -0x41(%rdx),%esi
  40305d:	83 fe 37             	cmp    $0x37,%esi
  403060:	0f 87 1d 07 00 00    	ja     403783 <printf_core+0xc83>
  403066:	48 8d 3d 47 20 00 00 	lea    0x2047(%rip),%rdi        # 4050b4 <_fini+0x441>
  40306d:	48 63 34 b7          	movslq (%rdi,%rsi,4),%rsi
  403071:	48 01 fe             	add    %rdi,%rsi
  403074:	ff e6                	jmp    *%rsi
  403076:	83 7c 24 18 ff       	cmpl   $0xffffffff,0x18(%rsp)
  40307b:	0f 85 36 09 00 00    	jne    4039b7 <printf_core+0xeb7>
  403081:	4d 85 db             	test   %r11,%r11
  403084:	75 9c                	jne    403022 <printf_core+0x522>
  403086:	eb 08                	jmp    403090 <printf_core+0x590>
  403088:	48 8b 44 24 28       	mov    0x28(%rsp),%rax
  40308d:	89 34 90             	mov    %esi,(%rax,%rdx,4)
  403090:	49 89 de             	mov    %rbx,%r14
  403093:	e9 40 fb ff ff       	jmp    402bd8 <printf_core+0xd8>
  403098:	4d 85 db             	test   %r11,%r11
  40309b:	74 26                	je     4030c3 <printf_core+0x5c3>
  40309d:	48 8b 54 24 10       	mov    0x10(%rsp),%rdx
  4030a2:	48 8d 7c 24 50       	lea    0x50(%rsp),%rdi
  4030a7:	48 89 4c 24 38       	mov    %rcx,0x38(%rsp)
  4030ac:	89 44 24 18          	mov    %eax,0x18(%rsp)
  4030b0:	e8 e8 e4 ff ff       	call   40159d <pop_arg>
  4030b5:	8b 44 24 18          	mov    0x18(%rsp),%eax
  4030b9:	48 8b 4c 24 38       	mov    0x38(%rsp),%rcx
  4030be:	e9 5f ff ff ff       	jmp    403022 <printf_core+0x522>
  4030c3:	45 31 e4             	xor    %r12d,%r12d
  4030c6:	e9 fd 08 00 00       	jmp    4039c8 <printf_core+0xec8>
  4030cb:	4c 8b 44 24 50       	mov    0x50(%rsp),%r8
  4030d0:	e9 97 04 00 00       	jmp    40356c <printf_core+0xa6c>
  4030d5:	89 d6                	mov    %edx,%esi
  4030d7:	83 e6 20             	and    $0x20,%esi
  4030da:	4c 8b 44 24 50       	mov    0x50(%rsp),%r8
  4030df:	48 8d bc 24 88 00 00 	lea    0x88(%rsp),%rdi
  4030e6:	00 
  4030e7:	48 89 7c 24 40       	mov    %rdi,0x40(%rsp)
  4030ec:	49 89 fe             	mov    %rdi,%r14
  4030ef:	48 8d 3d ca 20 00 00 	lea    0x20ca(%rip),%rdi        # 4051c0 <xdigits>
  4030f6:	4c 89 c0             	mov    %r8,%rax
  4030f9:	e9 1b 01 00 00       	jmp    403219 <printf_core+0x719>
  4030fe:	48 8b 44 24 50       	mov    0x50(%rsp),%rax
  403103:	4c 63 34 24          	movslq (%rsp),%r14
  403107:	48 89 04 24          	mov    %rax,(%rsp)
  40310b:	48 8d 44 24 6c       	lea    0x6c(%rsp),%rax
  403110:	4c 8b 3c 24          	mov    (%rsp),%r15
  403114:	45 31 ed             	xor    %r13d,%r13d
  403117:	48 89 44 24 20       	mov    %rax,0x20(%rsp)
  40311c:	4d 39 f5             	cmp    %r14,%r13
  40311f:	0f 83 b0 04 00 00    	jae    4035d5 <printf_core+0xad5>
  403125:	41 8b 37             	mov    (%r15),%esi
  403128:	85 f6                	test   %esi,%esi
  40312a:	0f 84 a5 04 00 00    	je     4035d5 <printf_core+0xad5>
  403130:	48 8b 7c 24 20       	mov    0x20(%rsp),%rdi
  403135:	49 83 c7 04          	add    $0x4,%r15
  403139:	4c 89 5c 24 18       	mov    %r11,0x18(%rsp)
  40313e:	44 89 4c 24 08       	mov    %r9d,0x8(%rsp)
  403143:	e8 97 10 00 00       	call   4041df <wctomb>
  403148:	85 c0                	test   %eax,%eax
  40314a:	0f 88 72 08 00 00    	js     4039c2 <printf_core+0xec2>
  403150:	4c 89 f1             	mov    %r14,%rcx
  403153:	48 98                	cltq
  403155:	44 8b 4c 24 08       	mov    0x8(%rsp),%r9d
  40315a:	4c 8b 5c 24 18       	mov    0x18(%rsp),%r11
  40315f:	4c 29 e9             	sub    %r13,%rcx
  403162:	4c 8d 15 77 20 00 00 	lea    0x2077(%rip),%r10        # 4051e0 <states>
  403169:	48 39 c1             	cmp    %rax,%rcx
  40316c:	0f 82 63 04 00 00    	jb     4035d5 <printf_core+0xad5>
  403172:	49 01 c5             	add    %rax,%r13
  403175:	eb a5                	jmp    40311c <printf_core+0x61c>
  403177:	83 f8 07             	cmp    $0x7,%eax
  40317a:	0f 87 10 ff ff ff    	ja     403090 <printf_core+0x590>
  403180:	48 8d 15 0d 20 00 00 	lea    0x200d(%rip),%rdx        # 405194 <_fini+0x521>
  403187:	48 63 04 8a          	movslq (%rdx,%rcx,4),%rax
  40318b:	48 01 d0             	add    %rdx,%rax
  40318e:	ff e0                	jmp    *%rax
  403190:	48 8b 44 24 50       	mov    0x50(%rsp),%rax
  403195:	44 89 20             	mov    %r12d,(%rax)
  403198:	e9 f3 fe ff ff       	jmp    403090 <printf_core+0x590>
  40319d:	48 8b 44 24 50       	mov    0x50(%rsp),%rax
  4031a2:	66 44 89 20          	mov    %r12w,(%rax)
  4031a6:	e9 e5 fe ff ff       	jmp    403090 <printf_core+0x590>
  4031ab:	48 8b 44 24 50       	mov    0x50(%rsp),%rax
  4031b0:	44 88 20             	mov    %r12b,(%rax)
  4031b3:	e9 d8 fe ff ff       	jmp    403090 <printf_core+0x590>
  4031b8:	48 8b 54 24 50       	mov    0x50(%rsp),%rdx
  4031bd:	49 63 c4             	movslq %r12d,%rax
  4031c0:	48 89 02             	mov    %rax,(%rdx)
  4031c3:	e9 c8 fe ff ff       	jmp    403090 <printf_core+0x590>
  4031c8:	8b 3c 24             	mov    (%rsp),%edi
  4031cb:	b8 10 00 00 00       	mov    $0x10,%eax
  4031d0:	be 20 00 00 00       	mov    $0x20,%esi
  4031d5:	ba 78 00 00 00       	mov    $0x78,%edx
  4031da:	39 c7                	cmp    %eax,%edi
  4031dc:	0f 43 c7             	cmovae %edi,%eax
  4031df:	83 cd 08             	or     $0x8,%ebp
  4031e2:	89 04 24             	mov    %eax,(%rsp)
  4031e5:	e9 f0 fe ff ff       	jmp    4030da <printf_core+0x5da>
  4031ea:	66 66 2e 0f 1f 84 00 	data16 cs nopw 0x0(%rax,%rax,1)
  4031f1:	00 00 00 00 
  4031f5:	66 66 2e 0f 1f 84 00 	data16 cs nopw 0x0(%rax,%rax,1)
  4031fc:	00 00 00 00 
  403200:	48 89 c1             	mov    %rax,%rcx
  403203:	49 83 ee 01          	sub    $0x1,%r14
  403207:	48 c1 e8 04          	shr    $0x4,%rax
  40320b:	83 e1 0f             	and    $0xf,%ecx
  40320e:	44 0f b6 3c 0f       	movzbl (%rdi,%rcx,1),%r15d
  403213:	41 09 f7             	or     %esi,%r15d
  403216:	45 88 3e             	mov    %r15b,(%r14)
  403219:	48 85 c0             	test   %rax,%rax
  40321c:	75 e2                	jne    403200 <printf_core+0x700>
  40321e:	48 8d 3d 36 1e 00 00 	lea    0x1e36(%rip),%rdi        # 40505b <_fini+0x3e8>
  403225:	44 89 6c 24 18       	mov    %r13d,0x18(%rsp)
  40322a:	48 89 7c 24 38       	mov    %rdi,0x38(%rsp)
  40322f:	4d 85 c0             	test   %r8,%r8
  403232:	0f 84 6e 01 00 00    	je     4033a6 <printf_core+0x8a6>
  403238:	40 f6 c5 08          	test   $0x8,%bpl
  40323c:	0f 84 64 01 00 00    	je     4033a6 <printf_core+0x8a6>
  403242:	89 d0                	mov    %edx,%eax
  403244:	c7 44 24 18 02 00 00 	movl   $0x2,0x18(%rsp)
  40324b:	00 
  40324c:	c1 f8 04             	sar    $0x4,%eax
  40324f:	48 98                	cltq
  403251:	48 01 c7             	add    %rax,%rdi
  403254:	48 89 7c 24 38       	mov    %rdi,0x38(%rsp)
  403259:	e9 48 01 00 00       	jmp    4033a6 <printf_core+0x8a6>
  40325e:	48 8d bc 24 88 00 00 	lea    0x88(%rsp),%rdi
  403265:	00 
  403266:	48 8b 44 24 50       	mov    0x50(%rsp),%rax
  40326b:	48 89 7c 24 40       	mov    %rdi,0x40(%rsp)
  403270:	49 89 fe             	mov    %rdi,%r14
  403273:	eb 1e                	jmp    403293 <printf_core+0x793>
  403275:	66 66 2e 0f 1f 84 00 	data16 cs nopw 0x0(%rax,%rax,1)
  40327c:	00 00 00 00 
  403280:	89 c2                	mov    %eax,%edx
  403282:	49 83 ee 01          	sub    $0x1,%r14
  403286:	48 c1 e8 03          	shr    $0x3,%rax
  40328a:	83 e2 07             	and    $0x7,%edx
  40328d:	83 c2 30             	add    $0x30,%edx
  403290:	41 88 16             	mov    %dl,(%r14)
  403293:	48 85 c0             	test   %rax,%rax
  403296:	75 e8                	jne    403280 <printf_core+0x780>
  403298:	48 8d 05 bc 1d 00 00 	lea    0x1dbc(%rip),%rax        # 40505b <_fini+0x3e8>
  40329f:	44 89 6c 24 18       	mov    %r13d,0x18(%rsp)
  4032a4:	48 89 44 24 38       	mov    %rax,0x38(%rsp)
  4032a9:	40 f6 c5 08          	test   $0x8,%bpl
  4032ad:	0f 84 f3 00 00 00    	je     4033a6 <printf_core+0x8a6>
  4032b3:	48 8b 74 24 40       	mov    0x40(%rsp),%rsi
  4032b8:	48 63 04 24          	movslq (%rsp),%rax
  4032bc:	4c 29 f6             	sub    %r14,%rsi
  4032bf:	48 89 c2             	mov    %rax,%rdx
  4032c2:	8d 4e 01             	lea    0x1(%rsi),%ecx
  4032c5:	48 39 c6             	cmp    %rax,%rsi
  4032c8:	0f 4d d1             	cmovge %ecx,%edx
  4032cb:	89 14 24             	mov    %edx,(%rsp)
  4032ce:	e9 d3 00 00 00       	jmp    4033a6 <printf_core+0x8a6>
  4032d3:	4c 8b 44 24 50       	mov    0x50(%rsp),%r8
  4032d8:	4d 85 c0             	test   %r8,%r8
  4032db:	78 43                	js     403320 <printf_core+0x820>
  4032dd:	48 8d 05 78 1d 00 00 	lea    0x1d78(%rip),%rax        # 40505c <_fini+0x3e9>
  4032e4:	c7 44 24 18 01 00 00 	movl   $0x1,0x18(%rsp)
  4032eb:	00 
  4032ec:	48 89 44 24 38       	mov    %rax,0x38(%rsp)
  4032f1:	f7 c5 00 08 00 00    	test   $0x800,%ebp
  4032f7:	75 49                	jne    403342 <printf_core+0x842>
  4032f9:	48 83 e8 01          	sub    $0x1,%rax
  4032fd:	44 89 6c 24 18       	mov    %r13d,0x18(%rsp)
  403302:	48 89 44 24 38       	mov    %rax,0x38(%rsp)
  403307:	40 f6 c5 01          	test   $0x1,%bpl
  40330b:	74 35                	je     403342 <printf_core+0x842>
  40330d:	48 83 c0 02          	add    $0x2,%rax
  403311:	c7 44 24 18 01 00 00 	movl   $0x1,0x18(%rsp)
  403318:	00 
  403319:	48 89 44 24 38       	mov    %rax,0x38(%rsp)
  40331e:	eb 22                	jmp    403342 <printf_core+0x842>
  403320:	4c 89 c0             	mov    %r8,%rax
  403323:	48 8d 3d 31 1d 00 00 	lea    0x1d31(%rip),%rdi        # 40505b <_fini+0x3e8>
  40332a:	c7 44 24 18 01 00 00 	movl   $0x1,0x18(%rsp)
  403331:	00 
  403332:	48 f7 d8             	neg    %rax
  403335:	48 89 7c 24 38       	mov    %rdi,0x38(%rsp)
  40333a:	48 89 44 24 50       	mov    %rax,0x50(%rsp)
  40333f:	49 89 c0             	mov    %rax,%r8
  403342:	48 8d 84 24 88 00 00 	lea    0x88(%rsp),%rax
  403349:	00 
  40334a:	4c 89 c1             	mov    %r8,%rcx
  40334d:	48 be cd cc cc cc cc 	movabs $0xcccccccccccccccd,%rsi
  403354:	cc cc cc 
  403357:	48 89 44 24 40       	mov    %rax,0x40(%rsp)
  40335c:	49 89 c6             	mov    %rax,%r14
  40335f:	eb 40                	jmp    4033a1 <printf_core+0x8a1>
  403361:	48 8d 05 f3 1c 00 00 	lea    0x1cf3(%rip),%rax        # 40505b <_fini+0x3e8>
  403368:	44 89 6c 24 18       	mov    %r13d,0x18(%rsp)
  40336d:	4c 8b 44 24 50       	mov    0x50(%rsp),%r8
  403372:	48 89 44 24 38       	mov    %rax,0x38(%rsp)
  403377:	eb c9                	jmp    403342 <printf_core+0x842>
  403379:	0f 1f 80 00 00 00 00 	nopl   0x0(%rax)
  403380:	48 89 c8             	mov    %rcx,%rax
  403383:	49 83 ee 01          	sub    $0x1,%r14
  403387:	48 f7 e6             	mul    %rsi
  40338a:	48 c1 ea 03          	shr    $0x3,%rdx
  40338e:	48 8d 04 92          	lea    (%rdx,%rdx,4),%rax
  403392:	48 01 c0             	add    %rax,%rax
  403395:	48 29 c1             	sub    %rax,%rcx
  403398:	83 c1 30             	add    $0x30,%ecx
  40339b:	41 88 0e             	mov    %cl,(%r14)
  40339e:	48 89 d1             	mov    %rdx,%rcx
  4033a1:	48 85 c9             	test   %rcx,%rcx
  4033a4:	75 da                	jne    403380 <printf_core+0x880>
  4033a6:	8b 0c 24             	mov    (%rsp),%ecx
  4033a9:	85 c9                	test   %ecx,%ecx
  4033ab:	79 0b                	jns    4033b8 <printf_core+0x8b8>
  4033ad:	f6 44 24 20 01       	testb  $0x1,0x20(%rsp)
  4033b2:	0f 85 53 fa ff ff    	jne    402e0b <printf_core+0x30b>
  4033b8:	44 8b 7c 24 20       	mov    0x20(%rsp),%r15d
  4033bd:	89 e8                	mov    %ebp,%eax
  4033bf:	8b 14 24             	mov    (%rsp),%edx
  4033c2:	25 ff ff fe ff       	and    $0xfffeffff,%eax
  4033c7:	45 85 ff             	test   %r15d,%r15d
  4033ca:	0f 45 e8             	cmovne %eax,%ebp
  4033cd:	48 83 7c 24 50 00    	cmpq   $0x0,0x50(%rsp)
  4033d3:	0f 94 c0             	sete   %al
  4033d6:	85 d2                	test   %edx,%edx
  4033d8:	75 08                	jne    4033e2 <printf_core+0x8e2>
  4033da:	84 c0                	test   %al,%al
  4033dc:	0f 85 c2 03 00 00    	jne    4037a4 <printf_core+0xca4>
  4033e2:	48 8b 7c 24 40       	mov    0x40(%rsp),%rdi
  4033e7:	48 63 14 24          	movslq (%rsp),%rdx
  4033eb:	0f b6 c0             	movzbl %al,%eax
  4033ee:	8b 4c 24 18          	mov    0x18(%rsp),%ecx
  4033f2:	4c 29 f7             	sub    %r14,%rdi
  4033f5:	48 01 f8             	add    %rdi,%rax
  4033f8:	48 89 7c 24 20       	mov    %rdi,0x20(%rsp)
  4033fd:	48 39 d0             	cmp    %rdx,%rax
  403400:	48 0f 4c c2          	cmovl  %rdx,%rax
  403404:	48 63 d0             	movslq %eax,%rdx
  403407:	48 39 d7             	cmp    %rdx,%rdi
  40340a:	0f 4f c7             	cmovg  %edi,%eax
  40340d:	89 04 24             	mov    %eax,(%rsp)
  403410:	89 c7                	mov    %eax,%edi
  403412:	b8 ff ff ff 7f       	mov    $0x7fffffff,%eax
  403417:	29 c8                	sub    %ecx,%eax
  403419:	39 f8                	cmp    %edi,%eax
  40341b:	0f 8c ea f9 ff ff    	jl     402e0b <printf_core+0x30b>
  403421:	8b 04 24             	mov    (%rsp),%eax
  403424:	8b 7c 24 18          	mov    0x18(%rsp),%edi
  403428:	44 8d 04 38          	lea    (%rax,%rdi,1),%r8d
  40342c:	45 39 c1             	cmp    %r8d,%r9d
  40342f:	45 89 c7             	mov    %r8d,%r15d
  403432:	45 0f 4d f9          	cmovge %r9d,%r15d
  403436:	44 39 7c 24 08       	cmp    %r15d,0x8(%rsp)
  40343b:	0f 8c ca f9 ff ff    	jl     402e0b <printf_core+0x30b>
  403441:	f7 c5 00 20 01 00    	test   $0x12000,%ebp
  403447:	0f 85 c0 03 00 00    	jne    40380d <printf_core+0xd0d>
  40344d:	45 39 c1             	cmp    %r8d,%r9d
  403450:	0f 8f 73 03 00 00    	jg     4037c9 <printf_core+0xcc9>
  403456:	41 f6 03 20          	testb  $0x20,(%r11)
  40345a:	0f 84 b3 03 00 00    	je     403813 <printf_core+0xd13>
  403460:	48 8b 44 24 20       	mov    0x20(%rsp),%rax
  403465:	8b 3c 24             	mov    (%rsp),%edi
  403468:	89 c1                	mov    %eax,%ecx
  40346a:	39 f8                	cmp    %edi,%eax
  40346c:	0f 8d 4c f7 ff ff    	jge    402bbe <printf_core+0xbe>
  403472:	45 39 c1             	cmp    %r8d,%r9d
  403475:	41 0f 9e c5          	setle  %r13b
  403479:	e9 22 04 00 00       	jmp    4038a0 <printf_core+0xda0>
  40347e:	4c 89 5c 24 20       	mov    %r11,0x20(%rsp)
  403483:	44 89 4c 24 18       	mov    %r9d,0x18(%rsp)
  403488:	e8 ec 0b 00 00       	call   404079 <__errno_location>
  40348d:	8b 38                	mov    (%rax),%edi
  40348f:	e8 1f 0c 00 00       	call   4040b3 <strerror>
  403494:	44 8b 4c 24 18       	mov    0x18(%rsp),%r9d
  403499:	4c 8b 5c 24 20       	mov    0x20(%rsp),%r11
  40349e:	49 89 c6             	mov    %rax,%r14
  4034a1:	44 8b 04 24          	mov    (%rsp),%r8d
  4034a5:	45 85 c0             	test   %r8d,%r8d
  4034a8:	78 7d                	js     403527 <printf_core+0xa27>
  4034aa:	48 63 34 24          	movslq (%rsp),%rsi
  4034ae:	4c 89 f7             	mov    %r14,%rdi
  4034b1:	4c 89 5c 24 20       	mov    %r11,0x20(%rsp)
  4034b6:	44 89 4c 24 18       	mov    %r9d,0x18(%rsp)
  4034bb:	e8 22 07 00 00       	call   403be2 <strnlen>
  4034c0:	4c 8b 5c 24 20       	mov    0x20(%rsp),%r11
  4034c5:	44 8b 4c 24 18       	mov    0x18(%rsp),%r9d
  4034ca:	4c 8d 15 0f 1d 00 00 	lea    0x1d0f(%rip),%r10        # 4051e0 <states>
  4034d1:	49 89 c0             	mov    %rax,%r8
  4034d4:	49 8d 04 06          	lea    (%r14,%rax,1),%rax
  4034d8:	4c 29 f0             	sub    %r14,%rax
  4034db:	44 89 04 24          	mov    %r8d,(%rsp)
  4034df:	81 e5 ff ff fe ff    	and    $0xfffeffff,%ebp
  4034e5:	48 89 44 24 20       	mov    %rax,0x20(%rsp)
  4034ea:	48 89 c7             	mov    %rax,%rdi
  4034ed:	49 63 c0             	movslq %r8d,%rax
  4034f0:	48 39 c7             	cmp    %rax,%rdi
  4034f3:	0f 8f 69 02 00 00    	jg     403762 <printf_core+0xc62>
  4034f9:	48 8d 05 5b 1b 00 00 	lea    0x1b5b(%rip),%rax        # 40505b <_fini+0x3e8>
  403500:	44 89 6c 24 18       	mov    %r13d,0x18(%rsp)
  403505:	48 89 44 24 38       	mov    %rax,0x38(%rsp)
  40350a:	e9 1d ff ff ff       	jmp    40342c <printf_core+0x92c>
  40350f:	4c 8b 74 24 50       	mov    0x50(%rsp),%r14
  403514:	48 8d 05 4a 1b 00 00 	lea    0x1b4a(%rip),%rax        # 405065 <_fini+0x3f2>
  40351b:	4d 85 f6             	test   %r14,%r14
  40351e:	4c 0f 44 f0          	cmove  %rax,%r14
  403522:	e9 7a ff ff ff       	jmp    4034a1 <printf_core+0x9a1>
  403527:	be ff ff ff 7f       	mov    $0x7fffffff,%esi
  40352c:	4c 89 f7             	mov    %r14,%rdi
  40352f:	4c 89 5c 24 18       	mov    %r11,0x18(%rsp)
  403534:	44 89 0c 24          	mov    %r9d,(%rsp)
  403538:	e8 a5 06 00 00       	call   403be2 <strnlen>
  40353d:	44 8b 0c 24          	mov    (%rsp),%r9d
  403541:	4c 8b 5c 24 18       	mov    0x18(%rsp),%r11
  403546:	4c 8d 15 93 1c 00 00 	lea    0x1c93(%rip),%r10        # 4051e0 <states>
  40354d:	49 89 c0             	mov    %rax,%r8
  403550:	49 8d 04 06          	lea    (%r14,%rax,1),%rax
  403554:	80 38 00             	cmpb   $0x0,(%rax)
  403557:	0f 84 7b ff ff ff    	je     4034d8 <printf_core+0x9d8>
  40355d:	e9 a9 f8 ff ff       	jmp    402e0b <printf_core+0x30b>
  403562:	4c 8b 44 24 50       	mov    0x50(%rsp),%r8
  403567:	4d 85 c0             	test   %r8,%r8
  40356a:	75 42                	jne    4035ae <printf_core+0xaae>
  40356c:	48 8d 05 e8 1a 00 00 	lea    0x1ae8(%rip),%rax        # 40505b <_fini+0x3e8>
  403573:	44 88 84 24 87 00 00 	mov    %r8b,0x87(%rsp)
  40357a:	00 
  40357b:	81 e5 ff ff fe ff    	and    $0xfffeffff,%ebp
  403581:	41 b8 01 00 00 00    	mov    $0x1,%r8d
  403587:	44 89 6c 24 18       	mov    %r13d,0x18(%rsp)
  40358c:	4c 8d b4 24 87 00 00 	lea    0x87(%rsp),%r14
  403593:	00 
  403594:	48 89 44 24 38       	mov    %rax,0x38(%rsp)
  403599:	c7 04 24 01 00 00 00 	movl   $0x1,(%rsp)
  4035a0:	48 c7 44 24 20 01 00 	movq   $0x1,0x20(%rsp)
  4035a7:	00 00 
  4035a9:	e9 7e fe ff ff       	jmp    40342c <printf_core+0x92c>
  4035ae:	4c 8d 6c 24 64       	lea    0x64(%rsp),%r13
  4035b3:	44 89 44 24 64       	mov    %r8d,0x64(%rsp)
  4035b8:	49 c7 c6 ff ff ff ff 	mov    $0xffffffffffffffff,%r14
  4035bf:	c7 44 24 68 00 00 00 	movl   $0x0,0x68(%rsp)
  4035c6:	00 
  4035c7:	4c 89 6c 24 50       	mov    %r13,0x50(%rsp)
  4035cc:	4c 89 2c 24          	mov    %r13,(%rsp)
  4035d0:	e9 36 fb ff ff       	jmp    40310b <printf_core+0x60b>
  4035d5:	49 81 fd ff ff ff 7f 	cmp    $0x7fffffff,%r13
  4035dc:	0f 87 29 f8 ff ff    	ja     402e0b <printf_core+0x30b>
  4035e2:	45 39 e9             	cmp    %r13d,%r9d
  4035e5:	44 89 6c 24 38       	mov    %r13d,0x38(%rsp)
  4035ea:	44 89 e9             	mov    %r13d,%ecx
  4035ed:	0f 9e 44 24 20       	setle  0x20(%rsp)
  4035f2:	0f b6 44 24 20       	movzbl 0x20(%rsp),%eax
  4035f7:	f7 c5 00 20 01 00    	test   $0x12000,%ebp
  4035fd:	75 08                	jne    403607 <printf_core+0xb07>
  4035ff:	84 c0                	test   %al,%al
  403601:	0f 84 83 00 00 00    	je     40368a <printf_core+0xb8a>
  403607:	45 31 ff             	xor    %r15d,%r15d
  40360a:	4c 8d 74 24 6c       	lea    0x6c(%rsp),%r14
  40360f:	4d 39 ef             	cmp    %r13,%r15
  403612:	0f 83 a2 00 00 00    	jae    4036ba <printf_core+0xbba>
  403618:	48 8b 04 24          	mov    (%rsp),%rax
  40361c:	8b 30                	mov    (%rax),%esi
  40361e:	85 f6                	test   %esi,%esi
  403620:	0f 84 94 00 00 00    	je     4036ba <printf_core+0xbba>
  403626:	48 83 c0 04          	add    $0x4,%rax
  40362a:	4c 89 f7             	mov    %r14,%rdi
  40362d:	4c 89 5c 24 18       	mov    %r11,0x18(%rsp)
  403632:	44 89 4c 24 08       	mov    %r9d,0x8(%rsp)
  403637:	48 89 04 24          	mov    %rax,(%rsp)
  40363b:	e8 9f 0b 00 00       	call   4041df <wctomb>
  403640:	44 8b 4c 24 08       	mov    0x8(%rsp),%r9d
  403645:	4c 8b 5c 24 18       	mov    0x18(%rsp),%r11
  40364a:	4c 8d 15 8f 1b 00 00 	lea    0x1b8f(%rip),%r10        # 4051e0 <states>
  403651:	48 63 f0             	movslq %eax,%rsi
  403654:	49 01 f7             	add    %rsi,%r15
  403657:	4d 39 fd             	cmp    %r15,%r13
  40365a:	72 5e                	jb     4036ba <printf_core+0xbba>
  40365c:	41 f6 03 20          	testb  $0x20,(%r11)
  403660:	75 ad                	jne    40360f <printf_core+0xb0f>
  403662:	4c 89 da             	mov    %r11,%rdx
  403665:	4c 89 f7             	mov    %r14,%rdi
  403668:	44 89 4c 24 18       	mov    %r9d,0x18(%rsp)
  40366d:	4c 89 5c 24 08       	mov    %r11,0x8(%rsp)
  403672:	e8 29 0e 00 00       	call   4044a0 <__fwritex>
  403677:	44 8b 4c 24 18       	mov    0x18(%rsp),%r9d
  40367c:	4c 8b 5c 24 08       	mov    0x8(%rsp),%r11
  403681:	4c 8d 15 58 1b 00 00 	lea    0x1b58(%rip),%r10        # 4051e0 <states>
  403688:	eb 85                	jmp    40360f <printf_core+0xb0f>
  40368a:	44 89 ca             	mov    %r9d,%edx
  40368d:	4c 89 df             	mov    %r11,%rdi
  403690:	be 20 00 00 00       	mov    $0x20,%esi
  403695:	44 89 4c 24 18       	mov    %r9d,0x18(%rsp)
  40369a:	4c 89 5c 24 08       	mov    %r11,0x8(%rsp)
  40369f:	e8 7c e0 ff ff       	call   401720 <pad.part.0>
  4036a4:	44 8b 4c 24 18       	mov    0x18(%rsp),%r9d
  4036a9:	4c 8b 5c 24 08       	mov    0x8(%rsp),%r11
  4036ae:	4c 8d 15 2b 1b 00 00 	lea    0x1b2b(%rip),%r10        # 4051e0 <states>
  4036b5:	e9 4d ff ff ff       	jmp    403607 <printf_core+0xb07>
  4036ba:	81 f5 00 20 00 00    	xor    $0x2000,%ebp
  4036c0:	81 e5 00 20 01 00    	and    $0x12000,%ebp
  4036c6:	75 07                	jne    4036cf <printf_core+0xbcf>
  4036c8:	80 7c 24 20 00       	cmpb   $0x0,0x20(%rsp)
  4036cd:	74 13                	je     4036e2 <printf_core+0xbe2>
  4036cf:	8b 44 24 38          	mov    0x38(%rsp),%eax
  4036d3:	41 39 c1             	cmp    %eax,%r9d
  4036d6:	41 0f 4d c1          	cmovge %r9d,%eax
  4036da:	41 89 c7             	mov    %eax,%r15d
  4036dd:	e9 dc f4 ff ff       	jmp    402bbe <printf_core+0xbe>
  4036e2:	8b 4c 24 38          	mov    0x38(%rsp),%ecx
  4036e6:	44 89 ca             	mov    %r9d,%edx
  4036e9:	4c 89 df             	mov    %r11,%rdi
  4036ec:	be 20 00 00 00       	mov    $0x20,%esi
  4036f1:	44 89 4c 24 08       	mov    %r9d,0x8(%rsp)
  4036f6:	4c 89 1c 24          	mov    %r11,(%rsp)
  4036fa:	e8 21 e0 ff ff       	call   401720 <pad.part.0>
  4036ff:	44 8b 4c 24 08       	mov    0x8(%rsp),%r9d
  403704:	4c 8b 1c 24          	mov    (%rsp),%r11
  403708:	4c 8d 15 d1 1a 00 00 	lea    0x1ad1(%rip),%r10        # 4051e0 <states>
  40370f:	eb be                	jmp    4036cf <printf_core+0xbcf>
  403711:	8b 3c 24             	mov    (%rsp),%edi
  403714:	85 ff                	test   %edi,%edi
  403716:	79 0b                	jns    403723 <printf_core+0xc23>
  403718:	f6 44 24 20 01       	testb  $0x1,0x20(%rsp)
  40371d:	0f 85 e8 f6 ff ff    	jne    402e0b <printf_core+0x30b>
  403723:	ff 74 24 58          	push   0x58(%rsp)
  403727:	41 89 d0             	mov    %edx,%r8d
  40372a:	89 e9                	mov    %ebp,%ecx
  40372c:	44 89 ce             	mov    %r9d,%esi
  40372f:	ff 74 24 58          	push   0x58(%rsp)
  403733:	4c 89 df             	mov    %r11,%rdi
  403736:	8b 54 24 10          	mov    0x10(%rsp),%edx
  40373a:	4c 89 5c 24 10       	mov    %r11,0x10(%rsp)
  40373f:	e8 bc e0 ff ff       	call   401800 <fmt_fp>
  403744:	59                   	pop    %rcx
  403745:	4c 8d 15 94 1a 00 00 	lea    0x1a94(%rip),%r10        # 4051e0 <states>
  40374c:	5e                   	pop    %rsi
  40374d:	83 f8 ff             	cmp    $0xffffffff,%eax
  403750:	4c 8b 1c 24          	mov    (%rsp),%r11
  403754:	41 89 c7             	mov    %eax,%r15d
  403757:	0f 85 61 f4 ff ff    	jne    402bbe <printf_core+0xbe>
  40375d:	e9 a9 f6 ff ff       	jmp    402e0b <printf_core+0x30b>
  403762:	48 8b 44 24 20       	mov    0x20(%rsp),%rax
  403767:	89 04 24             	mov    %eax,(%rsp)
  40376a:	41 89 c0             	mov    %eax,%r8d
  40376d:	48 8d 05 e7 18 00 00 	lea    0x18e7(%rip),%rax        # 40505b <_fini+0x3e8>
  403774:	44 89 6c 24 18       	mov    %r13d,0x18(%rsp)
  403779:	48 89 44 24 38       	mov    %rax,0x38(%rsp)
  40377e:	e9 a9 fc ff ff       	jmp    40342c <printf_core+0x92c>
  403783:	48 8d 84 24 88 00 00 	lea    0x88(%rsp),%rax
  40378a:	00 
  40378b:	4c 29 f0             	sub    %r14,%rax
  40378e:	48 89 44 24 20       	mov    %rax,0x20(%rsp)
  403793:	48 89 c7             	mov    %rax,%rdi
  403796:	48 63 04 24          	movslq (%rsp),%rax
  40379a:	48 39 c7             	cmp    %rax,%rdi
  40379d:	7e 21                	jle    4037c0 <printf_core+0xcc0>
  40379f:	48 89 f8             	mov    %rdi,%rax
  4037a2:	eb c3                	jmp    403767 <printf_core+0xc67>
  4037a4:	44 8b 44 24 18       	mov    0x18(%rsp),%r8d
  4037a9:	4c 8b 74 24 40       	mov    0x40(%rsp),%r14
  4037ae:	44 89 2c 24          	mov    %r13d,(%rsp)
  4037b2:	48 c7 44 24 20 00 00 	movq   $0x0,0x20(%rsp)
  4037b9:	00 00 
  4037bb:	e9 6c fc ff ff       	jmp    40342c <printf_core+0x92c>
  4037c0:	44 8b 04 24          	mov    (%rsp),%r8d
  4037c4:	e9 30 fd ff ff       	jmp    4034f9 <printf_core+0x9f9>
  4037c9:	44 89 c1             	mov    %r8d,%ecx
  4037cc:	4c 89 df             	mov    %r11,%rdi
  4037cf:	44 89 fa             	mov    %r15d,%edx
  4037d2:	be 20 00 00 00       	mov    $0x20,%esi
  4037d7:	44 89 4c 24 4c       	mov    %r9d,0x4c(%rsp)
  4037dc:	44 89 44 24 40       	mov    %r8d,0x40(%rsp)
  4037e1:	4c 89 5c 24 08       	mov    %r11,0x8(%rsp)
  4037e6:	e8 35 df ff ff       	call   401720 <pad.part.0>
  4037eb:	4c 8b 5c 24 08       	mov    0x8(%rsp),%r11
  4037f0:	44 8b 44 24 40       	mov    0x40(%rsp),%r8d
  4037f5:	4c 8d 15 e4 19 00 00 	lea    0x19e4(%rip),%r10        # 4051e0 <states>
  4037fc:	44 8b 4c 24 4c       	mov    0x4c(%rsp),%r9d
  403801:	41 f6 03 20          	testb  $0x20,(%r11)
  403805:	0f 85 55 fc ff ff    	jne    403460 <printf_core+0x960>
  40380b:	eb 06                	jmp    403813 <printf_core+0xd13>
  40380d:	41 f6 03 20          	testb  $0x20,(%r11)
  403811:	75 37                	jne    40384a <printf_core+0xd4a>
  403813:	48 63 74 24 18       	movslq 0x18(%rsp),%rsi
  403818:	48 8b 7c 24 38       	mov    0x38(%rsp),%rdi
  40381d:	4c 89 da             	mov    %r11,%rdx
  403820:	44 89 44 24 4c       	mov    %r8d,0x4c(%rsp)
  403825:	44 89 4c 24 40       	mov    %r9d,0x40(%rsp)
  40382a:	4c 89 5c 24 08       	mov    %r11,0x8(%rsp)
  40382f:	e8 6c 0c 00 00       	call   4044a0 <__fwritex>
  403834:	4c 8b 5c 24 08       	mov    0x8(%rsp),%r11
  403839:	44 8b 4c 24 40       	mov    0x40(%rsp),%r9d
  40383e:	4c 8d 15 9b 19 00 00 	lea    0x199b(%rip),%r10        # 4051e0 <states>
  403845:	44 8b 44 24 4c       	mov    0x4c(%rsp),%r8d
  40384a:	45 39 c1             	cmp    %r8d,%r9d
  40384d:	89 e8                	mov    %ebp,%eax
  40384f:	41 0f 9e c5          	setle  %r13b
  403853:	35 00 00 01 00       	xor    $0x10000,%eax
  403858:	a9 00 20 01 00       	test   $0x12000,%eax
  40385d:	75 33                	jne    403892 <printf_core+0xd92>
  40385f:	45 84 ed             	test   %r13b,%r13b
  403862:	75 2e                	jne    403892 <printf_core+0xd92>
  403864:	44 89 c1             	mov    %r8d,%ecx
  403867:	4c 89 df             	mov    %r11,%rdi
  40386a:	44 89 fa             	mov    %r15d,%edx
  40386d:	be 30 00 00 00       	mov    $0x30,%esi
  403872:	44 89 44 24 18       	mov    %r8d,0x18(%rsp)
  403877:	4c 89 5c 24 08       	mov    %r11,0x8(%rsp)
  40387c:	e8 9f de ff ff       	call   401720 <pad.part.0>
  403881:	44 8b 44 24 18       	mov    0x18(%rsp),%r8d
  403886:	4c 8b 5c 24 08       	mov    0x8(%rsp),%r11
  40388b:	4c 8d 15 4e 19 00 00 	lea    0x194e(%rip),%r10        # 4051e0 <states>
  403892:	48 8b 44 24 20       	mov    0x20(%rsp),%rax
  403897:	8b 3c 24             	mov    (%rsp),%edi
  40389a:	89 c1                	mov    %eax,%ecx
  40389c:	39 f8                	cmp    %edi,%eax
  40389e:	7d 29                	jge    4038c9 <printf_core+0xdc9>
  4038a0:	8b 14 24             	mov    (%rsp),%edx
  4038a3:	4c 89 df             	mov    %r11,%rdi
  4038a6:	be 30 00 00 00       	mov    $0x30,%esi
  4038ab:	44 89 44 24 08       	mov    %r8d,0x8(%rsp)
  4038b0:	4c 89 1c 24          	mov    %r11,(%rsp)
  4038b4:	e8 67 de ff ff       	call   401720 <pad.part.0>
  4038b9:	44 8b 44 24 08       	mov    0x8(%rsp),%r8d
  4038be:	4c 8b 1c 24          	mov    (%rsp),%r11
  4038c2:	4c 8d 15 17 19 00 00 	lea    0x1917(%rip),%r10        # 4051e0 <states>
  4038c9:	41 f6 03 20          	testb  $0x20,(%r11)
  4038cd:	74 42                	je     403911 <printf_core+0xe11>
  4038cf:	81 f5 00 20 00 00    	xor    $0x2000,%ebp
  4038d5:	81 e5 00 20 01 00    	and    $0x12000,%ebp
  4038db:	0f 85 dd f2 ff ff    	jne    402bbe <printf_core+0xbe>
  4038e1:	45 84 ed             	test   %r13b,%r13b
  4038e4:	0f 85 d4 f2 ff ff    	jne    402bbe <printf_core+0xbe>
  4038ea:	4c 89 df             	mov    %r11,%rdi
  4038ed:	44 89 c1             	mov    %r8d,%ecx
  4038f0:	44 89 fa             	mov    %r15d,%edx
  4038f3:	be 20 00 00 00       	mov    $0x20,%esi
  4038f8:	4c 89 1c 24          	mov    %r11,(%rsp)
  4038fc:	e8 1f de ff ff       	call   401720 <pad.part.0>
  403901:	4c 8b 1c 24          	mov    (%rsp),%r11
  403905:	4c 8d 15 d4 18 00 00 	lea    0x18d4(%rip),%r10        # 4051e0 <states>
  40390c:	e9 ad f2 ff ff       	jmp    402bbe <printf_core+0xbe>
  403911:	48 8b 74 24 20       	mov    0x20(%rsp),%rsi
  403916:	4c 89 da             	mov    %r11,%rdx
  403919:	4c 89 f7             	mov    %r14,%rdi
  40391c:	44 89 44 24 08       	mov    %r8d,0x8(%rsp)
  403921:	4c 89 1c 24          	mov    %r11,(%rsp)
  403925:	e8 76 0b 00 00       	call   4044a0 <__fwritex>
  40392a:	4c 8b 1c 24          	mov    (%rsp),%r11
  40392e:	44 8b 44 24 08       	mov    0x8(%rsp),%r8d
  403933:	4c 8d 15 a6 18 00 00 	lea    0x18a6(%rip),%r10        # 4051e0 <states>
  40393a:	eb 93                	jmp    4038cf <printf_core+0xdcf>
  40393c:	4d 85 db             	test   %r11,%r11
  40393f:	0f 85 83 00 00 00    	jne    4039c8 <printf_core+0xec8>
  403945:	8b 54 24 48          	mov    0x48(%rsp),%edx
  403949:	85 d2                	test   %edx,%edx
  40394b:	0f 84 72 f7 ff ff    	je     4030c3 <printf_core+0x5c3>
  403951:	48 8b 7c 24 30       	mov    0x30(%rsp),%rdi
  403956:	41 b8 01 00 00 00    	mov    $0x1,%r8d
  40395c:	48 83 c7 10          	add    $0x10,%rdi
  403960:	48 8b 44 24 28       	mov    0x28(%rsp),%rax
  403965:	42 8b 34 80          	mov    (%rax,%r8,4),%esi
  403969:	85 f6                	test   %esi,%esi
  40396b:	74 37                	je     4039a4 <printf_core+0xea4>
  40396d:	48 8b 54 24 10       	mov    0x10(%rsp),%rdx
  403972:	49 83 c0 01          	add    $0x1,%r8
  403976:	e8 22 dc ff ff       	call   40159d <pop_arg>
  40397b:	48 83 c7 10          	add    $0x10,%rdi
  40397f:	49 83 f8 0a          	cmp    $0xa,%r8
  403983:	75 db                	jne    403960 <printf_core+0xe60>
  403985:	41 bc 01 00 00 00    	mov    $0x1,%r12d
  40398b:	eb 3b                	jmp    4039c8 <printf_core+0xec8>
  40398d:	66 66 2e 0f 1f 84 00 	data16 cs nopw 0x0(%rax,%rax,1)
  403994:	00 00 00 00 
  403998:	0f 1f 84 00 00 00 00 	nopl   0x0(%rax,%rax,1)
  40399f:	00 
  4039a0:	49 83 c0 01          	add    $0x1,%r8
  4039a4:	49 83 f8 0a          	cmp    $0xa,%r8
  4039a8:	74 db                	je     403985 <printf_core+0xe85>
  4039aa:	48 8b 44 24 28       	mov    0x28(%rsp),%rax
  4039af:	42 8b 04 80          	mov    (%rax,%r8,4),%eax
  4039b3:	85 c0                	test   %eax,%eax
  4039b5:	74 e9                	je     4039a0 <printf_core+0xea0>
  4039b7:	e8 bd 06 00 00       	call   404079 <__errno_location>
  4039bc:	c7 00 16 00 00 00    	movl   $0x16,(%rax)
  4039c2:	41 bc ff ff ff ff    	mov    $0xffffffff,%r12d
  4039c8:	48 8b 84 24 88 00 00 	mov    0x88(%rsp),%rax
  4039cf:	00 
  4039d0:	64 48 2b 04 25 28 00 	sub    %fs:0x28,%rax
  4039d7:	00 00 
  4039d9:	75 15                	jne    4039f0 <printf_core+0xef0>
  4039db:	48 81 c4 98 00 00 00 	add    $0x98,%rsp
  4039e2:	44 89 e0             	mov    %r12d,%eax
  4039e5:	5b                   	pop    %rbx
  4039e6:	5d                   	pop    %rbp
  4039e7:	41 5c                	pop    %r12
  4039e9:	41 5d                	pop    %r13
  4039eb:	41 5e                	pop    %r14
  4039ed:	41 5f                	pop    %r15
  4039ef:	c3                   	ret
  4039f0:	e8 82 06 00 00       	call   404077 <__stack_chk_fail>

00000000004039f5 <vfprintf>:
  4039f5:	41 57                	push   %r15
  4039f7:	66 0f ef c0          	pxor   %xmm0,%xmm0
  4039fb:	41 56                	push   %r14
  4039fd:	41 55                	push   %r13
  4039ff:	41 54                	push   %r12
  403a01:	55                   	push   %rbp
  403a02:	53                   	push   %rbx
  403a03:	48 89 fb             	mov    %rdi,%rbx
  403a06:	31 ff                	xor    %edi,%edi
  403a08:	48 81 ec 78 01 00 00 	sub    $0x178,%rsp
  403a0f:	48 89 74 24 10       	mov    %rsi,0x10(%rsp)
  403a14:	4c 8d 64 24 28       	lea    0x28(%rsp),%r12
  403a19:	4c 8d 74 24 40       	lea    0x40(%rsp),%r14
  403a1e:	4c 8d 6c 24 70       	lea    0x70(%rsp),%r13
  403a23:	4d 89 f0             	mov    %r14,%r8
  403a26:	4c 89 e9             	mov    %r13,%rcx
  403a29:	64 48 8b 04 25 28 00 	mov    %fs:0x28,%rax
  403a30:	00 00 
  403a32:	48 89 84 24 68 01 00 	mov    %rax,0x168(%rsp)
  403a39:	00 
  403a3a:	31 c0                	xor    %eax,%eax
  403a3c:	0f 29 44 24 40       	movaps %xmm0,0x40(%rsp)
  403a41:	48 c7 44 24 60 00 00 	movq   $0x0,0x60(%rsp)
  403a48:	00 00 
  403a4a:	0f 29 44 24 50       	movaps %xmm0,0x50(%rsp)
  403a4f:	f3 0f 6f 02          	movdqu (%rdx),%xmm0
  403a53:	0f 11 44 24 28       	movups %xmm0,0x28(%rsp)
  403a58:	48 8b 42 10          	mov    0x10(%rdx),%rax
  403a5c:	4c 89 e2             	mov    %r12,%rdx
  403a5f:	48 89 44 24 38       	mov    %rax,0x38(%rsp)
  403a64:	e8 97 f0 ff ff       	call   402b00 <printf_core>
  403a69:	85 c0                	test   %eax,%eax
  403a6b:	0f 88 61 01 00 00    	js     403bd2 <vfprintf+0x1dd>
  403a71:	8b 83 8c 00 00 00    	mov    0x8c(%rbx),%eax
  403a77:	31 ed                	xor    %ebp,%ebp
  403a79:	85 c0                	test   %eax,%eax
  403a7b:	0f 89 f2 00 00 00    	jns    403b73 <vfprintf+0x17e>
  403a81:	8b 03                	mov    (%rbx),%eax
  403a83:	89 c1                	mov    %eax,%ecx
  403a85:	83 e0 df             	and    $0xffffffdf,%eax
  403a88:	83 e1 20             	and    $0x20,%ecx
  403a8b:	48 83 7b 60 00       	cmpq   $0x0,0x60(%rbx)
  403a90:	89 03                	mov    %eax,(%rbx)
  403a92:	89 4c 24 0c          	mov    %ecx,0xc(%rsp)
  403a96:	0f 85 e6 00 00 00    	jne    403b82 <vfprintf+0x18d>
  403a9c:	48 8b 43 58          	mov    0x58(%rbx),%rax
  403aa0:	48 c7 43 60 50 00 00 	movq   $0x50,0x60(%rbx)
  403aa7:	00 
  403aa8:	66 0f ef c0          	pxor   %xmm0,%xmm0
  403aac:	48 89 df             	mov    %rbx,%rdi
  403aaf:	48 c7 43 38 00 00 00 	movq   $0x0,0x38(%rbx)
  403ab6:	00 
  403ab7:	41 bf ff ff ff ff    	mov    $0xffffffff,%r15d
  403abd:	48 89 44 24 18       	mov    %rax,0x18(%rsp)
  403ac2:	48 8d 84 24 10 01 00 	lea    0x110(%rsp),%rax
  403ac9:	00 
  403aca:	48 89 43 58          	mov    %rax,0x58(%rbx)
  403ace:	0f 11 43 20          	movups %xmm0,0x20(%rbx)
  403ad2:	e8 39 09 00 00       	call   404410 <__towrite>
  403ad7:	85 c0                	test   %eax,%eax
  403ad9:	75 19                	jne    403af4 <vfprintf+0xff>
  403adb:	48 8b 74 24 10       	mov    0x10(%rsp),%rsi
  403ae0:	4d 89 f0             	mov    %r14,%r8
  403ae3:	4c 89 e9             	mov    %r13,%rcx
  403ae6:	4c 89 e2             	mov    %r12,%rdx
  403ae9:	48 89 df             	mov    %rbx,%rdi
  403aec:	e8 0f f0 ff ff       	call   402b00 <printf_core>
  403af1:	41 89 c7             	mov    %eax,%r15d
  403af4:	48 83 7c 24 18 00    	cmpq   $0x0,0x18(%rsp)
  403afa:	74 36                	je     403b32 <vfprintf+0x13d>
  403afc:	31 d2                	xor    %edx,%edx
  403afe:	31 f6                	xor    %esi,%esi
  403b00:	48 89 df             	mov    %rbx,%rdi
  403b03:	ff 53 48             	call   *0x48(%rbx)
  403b06:	48 83 7b 28 00       	cmpq   $0x0,0x28(%rbx)
  403b0b:	0f 84 a9 00 00 00    	je     403bba <vfprintf+0x1c5>
  403b11:	48 8b 44 24 18       	mov    0x18(%rsp),%rax
  403b16:	48 c7 43 60 00 00 00 	movq   $0x0,0x60(%rbx)
  403b1d:	00 
  403b1e:	66 0f ef c0          	pxor   %xmm0,%xmm0
  403b22:	48 c7 43 38 00 00 00 	movq   $0x0,0x38(%rbx)
  403b29:	00 
  403b2a:	48 89 43 58          	mov    %rax,0x58(%rbx)
  403b2e:	0f 11 43 20          	movups %xmm0,0x20(%rbx)
  403b32:	8b 03                	mov    (%rbx),%eax
  403b34:	8b 4c 24 0c          	mov    0xc(%rsp),%ecx
  403b38:	ba ff ff ff ff       	mov    $0xffffffff,%edx
  403b3d:	a8 20                	test   $0x20,%al
  403b3f:	44 0f 45 fa          	cmovne %edx,%r15d
  403b43:	09 c8                	or     %ecx,%eax
  403b45:	89 03                	mov    %eax,(%rbx)
  403b47:	85 ed                	test   %ebp,%ebp
  403b49:	75 7a                	jne    403bc5 <vfprintf+0x1d0>
  403b4b:	48 8b 84 24 68 01 00 	mov    0x168(%rsp),%rax
  403b52:	00 
  403b53:	64 48 2b 04 25 28 00 	sub    %fs:0x28,%rax
  403b5a:	00 00 
  403b5c:	75 7f                	jne    403bdd <vfprintf+0x1e8>
  403b5e:	48 81 c4 78 01 00 00 	add    $0x178,%rsp
  403b65:	44 89 f8             	mov    %r15d,%eax
  403b68:	5b                   	pop    %rbx
  403b69:	5d                   	pop    %rbp
  403b6a:	41 5c                	pop    %r12
  403b6c:	41 5d                	pop    %r13
  403b6e:	41 5e                	pop    %r14
  403b70:	41 5f                	pop    %r15
  403b72:	c3                   	ret
  403b73:	48 89 df             	mov    %rbx,%rdi
  403b76:	e8 7c 06 00 00       	call   4041f7 <__lockfile>
  403b7b:	89 c5                	mov    %eax,%ebp
  403b7d:	e9 ff fe ff ff       	jmp    403a81 <vfprintf+0x8c>
  403b82:	48 83 7b 20 00       	cmpq   $0x0,0x20(%rbx)
  403b87:	74 1b                	je     403ba4 <vfprintf+0x1af>
  403b89:	48 8b 74 24 10       	mov    0x10(%rsp),%rsi
  403b8e:	4d 89 f0             	mov    %r14,%r8
  403b91:	4c 89 e9             	mov    %r13,%rcx
  403b94:	4c 89 e2             	mov    %r12,%rdx
  403b97:	48 89 df             	mov    %rbx,%rdi
  403b9a:	e8 61 ef ff ff       	call   402b00 <printf_core>
  403b9f:	41 89 c7             	mov    %eax,%r15d
  403ba2:	eb 8e                	jmp    403b32 <vfprintf+0x13d>
  403ba4:	48 89 df             	mov    %rbx,%rdi
  403ba7:	41 83 cf ff          	or     $0xffffffff,%r15d
  403bab:	e8 60 08 00 00       	call   404410 <__towrite>
  403bb0:	85 c0                	test   %eax,%eax
  403bb2:	0f 85 7a ff ff ff    	jne    403b32 <vfprintf+0x13d>
  403bb8:	eb cf                	jmp    403b89 <vfprintf+0x194>
  403bba:	41 bf ff ff ff ff    	mov    $0xffffffff,%r15d
  403bc0:	e9 4c ff ff ff       	jmp    403b11 <vfprintf+0x11c>
  403bc5:	48 89 df             	mov    %rbx,%rdi
  403bc8:	e8 ca 06 00 00       	call   404297 <__unlockfile>
  403bcd:	e9 79 ff ff ff       	jmp    403b4b <vfprintf+0x156>
  403bd2:	41 bf ff ff ff ff    	mov    $0xffffffff,%r15d
  403bd8:	e9 6e ff ff ff       	jmp    403b4b <vfprintf+0x156>
  403bdd:	e8 95 04 00 00       	call   404077 <__stack_chk_fail>

0000000000403be2 <strnlen>:
  403be2:	55                   	push   %rbp
  403be3:	48 89 f2             	mov    %rsi,%rdx
  403be6:	48 89 fd             	mov    %rdi,%rbp
  403be9:	53                   	push   %rbx
  403bea:	48 89 f3             	mov    %rsi,%rbx
  403bed:	31 f6                	xor    %esi,%esi
  403bef:	48 83 ec 08          	sub    $0x8,%rsp
  403bf3:	e8 08 0a 00 00       	call   404600 <memchr>
  403bf8:	48 89 c2             	mov    %rax,%rdx
  403bfb:	48 29 ea             	sub    %rbp,%rdx
  403bfe:	48 85 c0             	test   %rax,%rax
  403c01:	48 89 d8             	mov    %rbx,%rax
  403c04:	48 0f 45 c2          	cmovne %rdx,%rax
  403c08:	48 83 c4 08          	add    $0x8,%rsp
  403c0c:	5b                   	pop    %rbx
  403c0d:	5d                   	pop    %rbp
  403c0e:	c3                   	ret

0000000000403c0f <memset>:
  403c0f:	48 0f b6 c6          	movzbq %sil,%rax
  403c13:	49 b8 01 01 01 01 01 	movabs $0x101010101010101,%r8
  403c1a:	01 01 01 
  403c1d:	49 0f af c0          	imul   %r8,%rax
  403c21:	48 83 fa 7e          	cmp    $0x7e,%rdx
  403c25:	77 78                	ja     403c9f <memset+0x90>
  403c27:	85 d2                	test   %edx,%edx
  403c29:	74 70                	je     403c9b <memset+0x8c>
  403c2b:	40 88 37             	mov    %sil,(%rdi)
  403c2e:	40 88 74 17 ff       	mov    %sil,-0x1(%rdi,%rdx,1)
  403c33:	83 fa 02             	cmp    $0x2,%edx
  403c36:	76 63                	jbe    403c9b <memset+0x8c>
  403c38:	66 89 47 01          	mov    %ax,0x1(%rdi)
  403c3c:	66 89 44 17 fd       	mov    %ax,-0x3(%rdi,%rdx,1)
  403c41:	83 fa 06             	cmp    $0x6,%edx
  403c44:	76 55                	jbe    403c9b <memset+0x8c>
  403c46:	89 47 03             	mov    %eax,0x3(%rdi)
  403c49:	89 44 17 f9          	mov    %eax,-0x7(%rdi,%rdx,1)
  403c4d:	83 fa 0e             	cmp    $0xe,%edx
  403c50:	76 49                	jbe    403c9b <memset+0x8c>
  403c52:	48 89 47 07          	mov    %rax,0x7(%rdi)
  403c56:	48 89 44 17 f1       	mov    %rax,-0xf(%rdi,%rdx,1)
  403c5b:	83 fa 1e             	cmp    $0x1e,%edx
  403c5e:	76 3b                	jbe    403c9b <memset+0x8c>
  403c60:	48 89 47 0f          	mov    %rax,0xf(%rdi)
  403c64:	48 89 47 17          	mov    %rax,0x17(%rdi)
  403c68:	48 89 44 17 e1       	mov    %rax,-0x1f(%rdi,%rdx,1)
  403c6d:	48 89 44 17 e9       	mov    %rax,-0x17(%rdi,%rdx,1)
  403c72:	83 fa 3e             	cmp    $0x3e,%edx
  403c75:	76 24                	jbe    403c9b <memset+0x8c>
  403c77:	48 89 47 1f          	mov    %rax,0x1f(%rdi)
  403c7b:	48 89 47 27          	mov    %rax,0x27(%rdi)
  403c7f:	48 89 47 2f          	mov    %rax,0x2f(%rdi)
  403c83:	48 89 47 37          	mov    %rax,0x37(%rdi)
  403c87:	48 89 44 17 c1       	mov    %rax,-0x3f(%rdi,%rdx,1)
  403c8c:	48 89 44 17 c9       	mov    %rax,-0x37(%rdi,%rdx,1)
  403c91:	48 89 44 17 d1       	mov    %rax,-0x2f(%rdi,%rdx,1)
  403c96:	48 89 44 17 d9       	mov    %rax,-0x27(%rdi,%rdx,1)
  403c9b:	48 89 f8             	mov    %rdi,%rax
  403c9e:	c3                   	ret
  403c9f:	f7 c7 0f 00 00 00    	test   $0xf,%edi
  403ca5:	49 89 f8             	mov    %rdi,%r8
  403ca8:	48 89 44 17 f8       	mov    %rax,-0x8(%rdi,%rdx,1)
  403cad:	48 89 d1             	mov    %rdx,%rcx
  403cb0:	75 0b                	jne    403cbd <memset+0xae>
  403cb2:	48 c1 e9 03          	shr    $0x3,%rcx
  403cb6:	f3 48 ab             	rep stos %rax,%es:(%rdi)
  403cb9:	4c 89 c0             	mov    %r8,%rax
  403cbc:	c3                   	ret
  403cbd:	31 d2                	xor    %edx,%edx
  403cbf:	29 fa                	sub    %edi,%edx
  403cc1:	83 e2 0f             	and    $0xf,%edx
  403cc4:	48 89 07             	mov    %rax,(%rdi)
  403cc7:	48 89 47 08          	mov    %rax,0x8(%rdi)
  403ccb:	48 29 d1             	sub    %rdx,%rcx
  403cce:	48 01 d7             	add    %rdx,%rdi
  403cd1:	eb df                	jmp    403cb2 <memset+0xa3>

0000000000403cd3 <sleep>:
  403cd3:	48 83 ec 28          	sub    $0x28,%rsp
  403cd7:	64 48 8b 04 25 28 00 	mov    %fs:0x28,%rax
  403cde:	00 00 
  403ce0:	48 89 44 24 18       	mov    %rax,0x18(%rsp)
  403ce5:	31 c0                	xor    %eax,%eax
  403ce7:	48 89 e6             	mov    %rsp,%rsi
  403cea:	89 f8                	mov    %edi,%eax
  403cec:	48 89 e7             	mov    %rsp,%rdi
  403cef:	48 c7 44 24 08 00 00 	movq   $0x0,0x8(%rsp)
  403cf6:	00 00 
  403cf8:	48 89 04 24          	mov    %rax,(%rsp)
  403cfc:	e8 ae 0a 00 00       	call   4047af <nanosleep>
  403d01:	89 c2                	mov    %eax,%edx
  403d03:	8b 04 24             	mov    (%rsp),%eax
  403d06:	85 d2                	test   %edx,%edx
  403d08:	75 02                	jne    403d0c <sleep+0x39>
  403d0a:	31 c0                	xor    %eax,%eax
  403d0c:	48 8b 54 24 18       	mov    0x18(%rsp),%rdx
  403d11:	64 48 2b 14 25 28 00 	sub    %fs:0x28,%rdx
  403d18:	00 00 
  403d1a:	75 05                	jne    403d21 <sleep+0x4e>
  403d1c:	48 83 c4 28          	add    $0x28,%rsp
  403d20:	c3                   	ret
  403d21:	e8 51 03 00 00       	call   404077 <__stack_chk_fail>

0000000000403d26 <__init_tp>:
  403d26:	53                   	push   %rbx
  403d27:	66 48 0f 6e c7       	movq   %rdi,%xmm0
  403d2c:	48 89 fb             	mov    %rdi,%rbx
  403d2f:	66 0f 6c c0          	punpcklqdq %xmm0,%xmm0
  403d33:	48 83 ec 10          	sub    $0x10,%rsp
  403d37:	48 89 3f             	mov    %rdi,(%rdi)
  403d3a:	0f 29 04 24          	movaps %xmm0,(%rsp)
  403d3e:	e8 5c 0a 00 00       	call   40479f <__set_thread_area>
  403d43:	85 c0                	test   %eax,%eax
  403d45:	78 59                	js     403da0 <__init_tp+0x7a>
  403d47:	75 07                	jne    403d50 <__init_tp+0x2a>
  403d49:	c6 05 10 34 00 00 01 	movb   $0x1,0x3410(%rip)        # 407160 <__libc>
  403d50:	c7 43 38 02 00 00 00 	movl   $0x2,0x38(%rbx)
  403d57:	b8 da 00 00 00       	mov    $0xda,%eax
  403d5c:	48 8d 3d 2d 3a 00 00 	lea    0x3a2d(%rip),%rdi        # 407790 <__thread_list_lock>
  403d63:	0f 05                	syscall
  403d65:	89 43 30             	mov    %eax,0x30(%rbx)
  403d68:	48 8d 05 29 34 00 00 	lea    0x3429(%rip),%rax        # 407198 <__libc+0x38>
  403d6f:	66 0f 6f 0c 24       	movdqa (%rsp),%xmm1
  403d74:	48 89 83 a8 00 00 00 	mov    %rax,0xa8(%rbx)
  403d7b:	48 8d 83 88 00 00 00 	lea    0x88(%rbx),%rax
  403d82:	48 89 83 88 00 00 00 	mov    %rax,0x88(%rbx)
  403d89:	48 8b 05 98 33 00 00 	mov    0x3398(%rip),%rax        # 407128 <__sysinfo>
  403d90:	0f 11 4b 10          	movups %xmm1,0x10(%rbx)
  403d94:	48 89 43 20          	mov    %rax,0x20(%rbx)
  403d98:	31 c0                	xor    %eax,%eax
  403d9a:	48 83 c4 10          	add    $0x10,%rsp
  403d9e:	5b                   	pop    %rbx
  403d9f:	c3                   	ret
  403da0:	b8 ff ff ff ff       	mov    $0xffffffff,%eax
  403da5:	eb f3                	jmp    403d9a <__init_tp+0x74>

0000000000403da7 <__copy_tls>:
  403da7:	41 55                	push   %r13
  403da9:	49 89 fd             	mov    %rdi,%r13
  403dac:	41 54                	push   %r12
  403dae:	55                   	push   %rbp
  403daf:	48 8d 6f 08          	lea    0x8(%rdi),%rbp
  403db3:	53                   	push   %rbx
  403db4:	48 83 ec 08          	sub    $0x8,%rsp
  403db8:	48 8b 05 b9 33 00 00 	mov    0x33b9(%rip),%rax        # 407178 <__libc+0x18>
  403dbf:	4c 8b 25 ba 33 00 00 	mov    0x33ba(%rip),%r12        # 407180 <__libc+0x20>
  403dc6:	48 8b 1d a3 33 00 00 	mov    0x33a3(%rip),%rbx        # 407170 <__libc+0x10>
  403dcd:	48 8d 84 07 38 ff ff 	lea    -0xc8(%rdi,%rax,1),%rax
  403dd4:	ff 
  403dd5:	49 f7 dc             	neg    %r12
  403dd8:	49 21 c4             	and    %rax,%r12
  403ddb:	eb 26                	jmp    403e03 <__copy_tls+0x5c>
  403ddd:	4c 89 e0             	mov    %r12,%rax
  403de0:	48 2b 43 28          	sub    0x28(%rbx),%rax
  403de4:	4c 89 e7             	mov    %r12,%rdi
  403de7:	48 83 c5 08          	add    $0x8,%rbp
  403deb:	48 89 45 f8          	mov    %rax,-0x8(%rbp)
  403def:	48 8b 53 10          	mov    0x10(%rbx),%rdx
  403df3:	48 8b 73 08          	mov    0x8(%rbx),%rsi
  403df7:	48 2b 7b 28          	sub    0x28(%rbx),%rdi
  403dfb:	e8 6d 09 00 00       	call   40476d <memcpy>
  403e00:	48 8b 1b             	mov    (%rbx),%rbx
  403e03:	48 85 db             	test   %rbx,%rbx
  403e06:	75 d5                	jne    403ddd <__copy_tls+0x36>
  403e08:	48 8b 05 79 33 00 00 	mov    0x3379(%rip),%rax        # 407188 <__libc+0x28>
  403e0f:	49 89 45 00          	mov    %rax,0x0(%r13)
  403e13:	4c 89 e0             	mov    %r12,%rax
  403e16:	4d 89 6c 24 08       	mov    %r13,0x8(%r12)
  403e1b:	48 83 c4 08          	add    $0x8,%rsp
  403e1f:	5b                   	pop    %rbx
  403e20:	5d                   	pop    %rbp
  403e21:	41 5c                	pop    %r12
  403e23:	41 5d                	pop    %r13
  403e25:	c3                   	ret
  403e26:	66 2e 0f 1f 84 00 00 	cs nopw 0x0(%rax,%rax,1)
  403e2d:	00 00 00 
  403e30:	66 2e 0f 1f 84 00 00 	cs nopw 0x0(%rax,%rax,1)
  403e37:	00 00 00 
  403e3a:	66 0f 1f 44 00 00    	nopw   0x0(%rax,%rax,1)

0000000000403e40 <__init_tls>:
  403e40:	53                   	push   %rbx
  403e41:	31 f6                	xor    %esi,%esi
  403e43:	45 31 c0             	xor    %r8d,%r8d
  403e46:	48 83 ec 10          	sub    $0x10,%rsp
  403e4a:	4c 8b 57 18          	mov    0x18(%rdi),%r10
  403e4e:	48 8b 4f 28          	mov    0x28(%rdi),%rcx
  403e52:	4c 89 d0             	mov    %r10,%rax
  403e55:	eb 18                	jmp    403e6f <__init_tls+0x2f>
  403e57:	66 0f 1f 84 00 00 00 	nopw   0x0(%rax,%rax,1)
  403e5e:	00 00 
  403e60:	4c 89 d6             	mov    %r10,%rsi
  403e63:	48 2b 70 10          	sub    0x10(%rax),%rsi
  403e67:	48 83 e9 01          	sub    $0x1,%rcx
  403e6b:	48 03 47 20          	add    0x20(%rdi),%rax
  403e6f:	48 85 c9             	test   %rcx,%rcx
  403e72:	74 58                	je     403ecc <__init_tls+0x8c>
  403e74:	8b 10                	mov    (%rax),%edx
  403e76:	83 fa 06             	cmp    $0x6,%edx
  403e79:	74 e5                	je     403e60 <__init_tls+0x20>
  403e7b:	83 fa 02             	cmp    $0x2,%edx
  403e7e:	75 15                	jne    403e95 <__init_tls+0x55>
  403e80:	48 c7 c2 00 00 00 00 	mov    $0x0,%rdx
  403e87:	48 85 d2             	test   %rdx,%rdx
  403e8a:	74 db                	je     403e67 <__init_tls+0x27>
  403e8c:	48 89 d6             	mov    %rdx,%rsi
  403e8f:	48 2b 70 10          	sub    0x10(%rax),%rsi
  403e93:	eb d2                	jmp    403e67 <__init_tls+0x27>
  403e95:	83 fa 07             	cmp    $0x7,%edx
  403e98:	75 05                	jne    403e9f <__init_tls+0x5f>
  403e9a:	49 89 c0             	mov    %rax,%r8
  403e9d:	eb c8                	jmp    403e67 <__init_tls+0x27>
  403e9f:	81 fa 51 e5 74 64    	cmp    $0x6474e551,%edx
  403ea5:	75 c0                	jne    403e67 <__init_tls+0x27>
  403ea7:	48 8b 50 28          	mov    0x28(%rax),%rdx
  403eab:	44 8b 0d 5a 32 00 00 	mov    0x325a(%rip),%r9d        # 40710c <__default_stacksize>
  403eb2:	49 39 d1             	cmp    %rdx,%r9
  403eb5:	73 b0                	jae    403e67 <__init_tls+0x27>
  403eb7:	41 b9 00 00 80 00    	mov    $0x800000,%r9d
  403ebd:	4c 39 ca             	cmp    %r9,%rdx
  403ec0:	49 0f 47 d1          	cmova  %r9,%rdx
  403ec4:	89 15 42 32 00 00    	mov    %edx,0x3242(%rip)        # 40710c <__default_stacksize>
  403eca:	eb 9b                	jmp    403e67 <__init_tls+0x27>
  403ecc:	4d 85 c0             	test   %r8,%r8
  403ecf:	0f 84 3f 01 00 00    	je     404014 <__init_tls+0x1d4>
  403ed5:	49 8b 40 20          	mov    0x20(%r8),%rax
  403ed9:	49 03 70 10          	add    0x10(%r8),%rsi
  403edd:	48 8d 1d 1c 37 00 00 	lea    0x371c(%rip),%rbx        # 407600 <main_tls>
  403ee4:	49 8b 50 28          	mov    0x28(%r8),%rdx
  403ee8:	48 89 35 19 37 00 00 	mov    %rsi,0x3719(%rip)        # 407608 <main_tls+0x8>
  403eef:	48 89 05 1a 37 00 00 	mov    %rax,0x371a(%rip)        # 407610 <main_tls+0x10>
  403ef6:	49 8b 40 30          	mov    0x30(%r8),%rax
  403efa:	48 c7 05 83 32 00 00 	movq   $0x1,0x3283(%rip)        # 407188 <__libc+0x28>
  403f01:	01 00 00 00 
  403f05:	48 89 05 14 37 00 00 	mov    %rax,0x3714(%rip)        # 407620 <main_tls+0x20>
  403f0c:	48 89 1d 5d 32 00 00 	mov    %rbx,0x325d(%rip)        # 407170 <__libc+0x10>
  403f13:	48 01 d6             	add    %rdx,%rsi
  403f16:	48 8d 48 ff          	lea    -0x1(%rax),%rcx
  403f1a:	48 f7 de             	neg    %rsi
  403f1d:	48 21 ce             	and    %rcx,%rsi
  403f20:	48 01 d6             	add    %rdx,%rsi
  403f23:	48 8d 90 df 00 00 00 	lea    0xdf(%rax),%rdx
  403f2a:	48 89 35 e7 36 00 00 	mov    %rsi,0x36e7(%rip)        # 407618 <main_tls+0x18>
  403f31:	48 89 35 f0 36 00 00 	mov    %rsi,0x36f0(%rip)        # 407628 <main_tls+0x28>
  403f38:	48 83 f8 07          	cmp    $0x7,%rax
  403f3c:	77 15                	ja     403f53 <__init_tls+0x113>
  403f3e:	48 c7 05 d7 36 00 00 	movq   $0x8,0x36d7(%rip)        # 407620 <main_tls+0x20>
  403f45:	08 00 00 00 
  403f49:	ba e7 00 00 00       	mov    $0xe7,%edx
  403f4e:	b8 08 00 00 00       	mov    $0x8,%eax
  403f53:	48 01 d6             	add    %rdx,%rsi
  403f56:	48 89 05 23 32 00 00 	mov    %rax,0x3223(%rip)        # 407180 <__libc+0x20>
  403f5d:	48 8d 3d dc 36 00 00 	lea    0x36dc(%rip),%rdi        # 407640 <builtin_tls>
  403f64:	48 83 e6 f8          	and    $0xfffffffffffffff8,%rsi
  403f68:	48 89 35 09 32 00 00 	mov    %rsi,0x3209(%rip)        # 407178 <__libc+0x18>
  403f6f:	48 81 fe 50 01 00 00 	cmp    $0x150,%rsi
  403f76:	76 21                	jbe    403f99 <__init_tls+0x159>
  403f78:	41 ba 22 00 00 00    	mov    $0x22,%r10d
  403f7e:	45 31 c9             	xor    %r9d,%r9d
  403f81:	b8 09 00 00 00       	mov    $0x9,%eax
  403f86:	31 ff                	xor    %edi,%edi
  403f88:	49 c7 c0 ff ff ff ff 	mov    $0xffffffffffffffff,%r8
  403f8f:	ba 03 00 00 00       	mov    $0x3,%edx
  403f94:	0f 05                	syscall
  403f96:	48 89 c7             	mov    %rax,%rdi
  403f99:	e8 09 fe ff ff       	call   403da7 <__copy_tls>
  403f9e:	48 89 00             	mov    %rax,(%rax)
  403fa1:	66 48 0f 6e c0       	movq   %rax,%xmm0
  403fa6:	48 89 c7             	mov    %rax,%rdi
  403fa9:	48 89 c3             	mov    %rax,%rbx
  403fac:	66 0f 6c c0          	punpcklqdq %xmm0,%xmm0
  403fb0:	0f 29 04 24          	movaps %xmm0,(%rsp)
  403fb4:	e8 e6 07 00 00       	call   40479f <__set_thread_area>
  403fb9:	85 c0                	test   %eax,%eax
  403fbb:	78 71                	js     40402e <__init_tls+0x1ee>
  403fbd:	75 07                	jne    403fc6 <__init_tls+0x186>
  403fbf:	c6 05 9a 31 00 00 01 	movb   $0x1,0x319a(%rip)        # 407160 <__libc>
  403fc6:	c7 43 38 02 00 00 00 	movl   $0x2,0x38(%rbx)
  403fcd:	b8 da 00 00 00       	mov    $0xda,%eax
  403fd2:	48 8d 3d b7 37 00 00 	lea    0x37b7(%rip),%rdi        # 407790 <__thread_list_lock>
  403fd9:	0f 05                	syscall
  403fdb:	89 43 30             	mov    %eax,0x30(%rbx)
  403fde:	48 8d 05 b3 31 00 00 	lea    0x31b3(%rip),%rax        # 407198 <__libc+0x38>
  403fe5:	66 0f 6f 0c 24       	movdqa (%rsp),%xmm1
  403fea:	48 89 83 a8 00 00 00 	mov    %rax,0xa8(%rbx)
  403ff1:	48 8d 83 88 00 00 00 	lea    0x88(%rbx),%rax
  403ff8:	48 89 83 88 00 00 00 	mov    %rax,0x88(%rbx)
  403fff:	48 8b 05 22 31 00 00 	mov    0x3122(%rip),%rax        # 407128 <__sysinfo>
  404006:	0f 11 4b 10          	movups %xmm1,0x10(%rbx)
  40400a:	48 89 43 20          	mov    %rax,0x20(%rbx)
  40400e:	48 83 c4 10          	add    $0x10,%rsp
  404012:	5b                   	pop    %rbx
  404013:	c3                   	ret
  404014:	48 8b 15 fd 35 00 00 	mov    0x35fd(%rip),%rdx        # 407618 <main_tls+0x18>
  40401b:	48 8b 35 e6 35 00 00 	mov    0x35e6(%rip),%rsi        # 407608 <main_tls+0x8>
  404022:	48 8b 05 f7 35 00 00 	mov    0x35f7(%rip),%rax        # 407620 <main_tls+0x20>
  404029:	e9 e5 fe ff ff       	jmp    403f13 <__init_tls+0xd3>
  40402e:	f4                   	hlt
  40402f:	eb dd                	jmp    40400e <__init_tls+0x1ce>

0000000000404031 <__init_ssp>:
  404031:	53                   	push   %rbx
  404032:	48 85 ff             	test   %rdi,%rdi
  404035:	74 2d                	je     404064 <__init_ssp+0x33>
  404037:	48 c7 c3 98 77 40 00 	mov    $0x407798,%rbx
  40403e:	48 89 fe             	mov    %rdi,%rsi
  404041:	ba 08 00 00 00       	mov    $0x8,%edx
  404046:	48 89 df             	mov    %rbx,%rdi
  404049:	e8 1f 07 00 00       	call   40476d <memcpy>
  40404e:	c6 43 01 00          	movb   $0x0,0x1(%rbx)
  404052:	48 8b 13             	mov    (%rbx),%rdx
  404055:	64 48 8b 04 25 00 00 	mov    %fs:0x0,%rax
  40405c:	00 00 
  40405e:	48 89 50 28          	mov    %rdx,0x28(%rax)
  404062:	5b                   	pop    %rbx
  404063:	c3                   	ret
  404064:	48 c7 c3 98 77 40 00 	mov    $0x407798,%rbx
  40406b:	48 69 c3 6d 4e c6 41 	imul   $0x41c64e6d,%rbx,%rax
  404072:	48 89 03             	mov    %rax,(%rbx)
  404075:	eb d7                	jmp    40404e <__init_ssp+0x1d>

0000000000404077 <__stack_chk_fail>:
  404077:	f4                   	hlt
  404078:	c3                   	ret

0000000000404079 <__errno_location>:
  404079:	64 48 8b 04 25 00 00 	mov    %fs:0x0,%rax
  404080:	00 00 
  404082:	48 83 c0 34          	add    $0x34,%rax
  404086:	c3                   	ret

0000000000404087 <__strerror_l>:
  404087:	48 8d 05 92 14 00 00 	lea    0x1492(%rip),%rax        # 405520 <errmsgstr>
  40408e:	81 ff 83 00 00 00    	cmp    $0x83,%edi
  404094:	77 11                	ja     4040a7 <__strerror_l+0x20>
  404096:	48 63 ff             	movslq %edi,%rdi
  404099:	48 8d 15 60 13 00 00 	lea    0x1360(%rip),%rdx        # 405400 <errmsgidx>
  4040a0:	0f b7 14 7a          	movzwl (%rdx,%rdi,2),%edx
  4040a4:	48 01 d0             	add    %rdx,%rax
  4040a7:	48 8b 76 28          	mov    0x28(%rsi),%rsi
  4040ab:	48 89 c7             	mov    %rax,%rdi
  4040ae:	e9 2f 00 00 00       	jmp    4040e2 <__lctrans>

00000000004040b3 <strerror>:
  4040b3:	64 48 8b 04 25 00 00 	mov    %fs:0x0,%rax
  4040ba:	00 00 
  4040bc:	48 8b b0 a8 00 00 00 	mov    0xa8(%rax),%rsi
  4040c3:	e9 bf ff ff ff       	jmp    404087 <__strerror_l>

00000000004040c8 <_Exit>:
  4040c8:	48 63 ff             	movslq %edi,%rdi
  4040cb:	b8 e7 00 00 00       	mov    $0xe7,%eax
  4040d0:	0f 05                	syscall
  4040d2:	ba 3c 00 00 00       	mov    $0x3c,%edx
  4040d7:	48 89 d0             	mov    %rdx,%rax
  4040da:	0f 05                	syscall
  4040dc:	eb f9                	jmp    4040d7 <_Exit+0xf>

00000000004040de <__lctrans_impl>:
  4040de:	48 89 f8             	mov    %rdi,%rax
  4040e1:	c3                   	ret

00000000004040e2 <__lctrans>:
  4040e2:	e9 f7 ff ff ff       	jmp    4040de <__lctrans_impl>

00000000004040e7 <__lctrans_cur>:
  4040e7:	64 48 8b 04 25 00 00 	mov    %fs:0x0,%rax
  4040ee:	00 00 
  4040f0:	48 8b 80 a8 00 00 00 	mov    0xa8(%rax),%rax
  4040f7:	48 8b 70 28          	mov    0x28(%rax),%rsi
  4040fb:	e9 de ff ff ff       	jmp    4040de <__lctrans_impl>

0000000000404100 <__fpclassifyl>:
  404100:	48 8b 54 24 08       	mov    0x8(%rsp),%rdx
  404105:	48 8b 44 24 10       	mov    0x10(%rsp),%rax
  40410a:	48 89 d1             	mov    %rdx,%rcx
  40410d:	89 c6                	mov    %eax,%esi
  40410f:	25 ff 7f 00 00       	and    $0x7fff,%eax
  404114:	48 c1 e9 3f          	shr    $0x3f,%rcx
  404118:	66 81 e6 ff 7f       	and    $0x7fff,%si
  40411d:	09 c8                	or     %ecx,%eax
  40411f:	74 0f                	je     404130 <__fpclassifyl+0x30>
  404121:	8d 04 8d 00 00 00 00 	lea    0x0(,%rcx,4),%eax
  404128:	66 81 fe ff 7f       	cmp    $0x7fff,%si
  40412d:	74 0e                	je     40413d <__fpclassifyl+0x3d>
  40412f:	c3                   	ret
  404130:	48 83 fa 01          	cmp    $0x1,%rdx
  404134:	b8 02 00 00 00       	mov    $0x2,%eax
  404139:	83 d8 ff             	sbb    $0xffffffff,%eax
  40413c:	c3                   	ret
  40413d:	31 c0                	xor    %eax,%eax
  40413f:	48 85 c9             	test   %rcx,%rcx
  404142:	74 eb                	je     40412f <__fpclassifyl+0x2f>
  404144:	31 c0                	xor    %eax,%eax
  404146:	48 01 d2             	add    %rdx,%rdx
  404149:	0f 94 c0             	sete   %al
  40414c:	c3                   	ret

000000000040414d <__signbitl>:
  40414d:	0f b7 44 24 10       	movzwl 0x10(%rsp),%eax
  404152:	66 c1 e8 0f          	shr    $0xf,%ax
  404156:	0f b7 c0             	movzwl %ax,%eax
  404159:	c3                   	ret

000000000040415a <frexpl>:
  40415a:	48 83 ec 28          	sub    $0x28,%rsp
  40415e:	db 6c 24 30          	fldt   0x30(%rsp)
  404162:	48 8b 44 24 38       	mov    0x38(%rsp),%rax
  404167:	89 c2                	mov    %eax,%edx
  404169:	d9 c0                	fld    %st(0)
  40416b:	db 7c 24 10          	fstpt  0x10(%rsp)
  40416f:	66 81 e2 ff 7f       	and    $0x7fff,%dx
  404174:	74 2a                	je     4041a0 <frexpl+0x46>
  404176:	dd d8                	fstp   %st(0)
  404178:	66 81 fa ff 7f       	cmp    $0x7fff,%dx
  40417d:	74 33                	je     4041b2 <frexpl+0x58>
  40417f:	0f b7 d2             	movzwl %dx,%edx
  404182:	66 25 00 80          	and    $0x8000,%ax
  404186:	81 ea fe 3f 00 00    	sub    $0x3ffe,%edx
  40418c:	66 0d fe 3f          	or     $0x3ffe,%ax
  404190:	66 89 44 24 18       	mov    %ax,0x18(%rsp)
  404195:	db 6c 24 10          	fldt   0x10(%rsp)
  404199:	89 17                	mov    %edx,(%rdi)
  40419b:	48 83 c4 28          	add    $0x28,%rsp
  40419f:	c3                   	ret
  4041a0:	d9 ee                	fldz
  4041a2:	d9 c9                	fxch   %st(1)
  4041a4:	df e9                	fucomip %st(1),%st
  4041a6:	dd d8                	fstp   %st(0)
  4041a8:	7a 0e                	jp     4041b8 <frexpl+0x5e>
  4041aa:	75 0c                	jne    4041b8 <frexpl+0x5e>
  4041ac:	c7 07 00 00 00 00    	movl   $0x0,(%rdi)
  4041b2:	db 6c 24 30          	fldt   0x30(%rsp)
  4041b6:	eb e3                	jmp    40419b <frexpl+0x41>
  4041b8:	db 6c 24 30          	fldt   0x30(%rsp)
  4041bc:	d8 0d 0a 12 00 00    	fmuls  0x120a(%rip)        # 4053cc <states+0x1ec>
  4041c2:	48 83 ec 10          	sub    $0x10,%rsp
  4041c6:	48 89 7c 24 18       	mov    %rdi,0x18(%rsp)
  4041cb:	db 3c 24             	fstpt  (%rsp)
  4041ce:	e8 87 ff ff ff       	call   40415a <frexpl>
  4041d3:	48 8b 7c 24 18       	mov    0x18(%rsp),%rdi
  4041d8:	83 2f 78             	subl   $0x78,(%rdi)
  4041db:	58                   	pop    %rax
  4041dc:	5a                   	pop    %rdx
  4041dd:	eb bc                	jmp    40419b <frexpl+0x41>

00000000004041df <wctomb>:
  4041df:	48 85 ff             	test   %rdi,%rdi
  4041e2:	74 10                	je     4041f4 <wctomb+0x15>
  4041e4:	48 83 ec 08          	sub    $0x8,%rsp
  4041e8:	31 d2                	xor    %edx,%edx
  4041ea:	e8 27 06 00 00       	call   404816 <wcrtomb>
  4041ef:	48 83 c4 08          	add    $0x8,%rsp
  4041f3:	c3                   	ret
  4041f4:	31 c0                	xor    %eax,%eax
  4041f6:	c3                   	ret

00000000004041f7 <__lockfile>:
  4041f7:	8b 8f 8c 00 00 00    	mov    0x8c(%rdi),%ecx
  4041fd:	64 48 8b 04 25 00 00 	mov    %fs:0x0,%rax
  404204:	00 00 
  404206:	44 8b 40 30          	mov    0x30(%rax),%r8d
  40420a:	81 e1 ff ff ff bf    	and    $0xbfffffff,%ecx
  404210:	31 c0                	xor    %eax,%eax
  404212:	44 39 c1             	cmp    %r8d,%ecx
  404215:	74 7f                	je     404296 <__lockfile+0x9f>
  404217:	48 89 fa             	mov    %rdi,%rdx
  40421a:	48 8d bf 8c 00 00 00 	lea    0x8c(%rdi),%rdi
  404221:	f0 44 0f b1 82 8c 00 	lock cmpxchg %r8d,0x8c(%rdx)
  404228:	00 00 
  40422a:	41 81 c8 00 00 00 40 	or     $0x40000000,%r8d
  404231:	85 c0                	test   %eax,%eax
  404233:	74 5c                	je     404291 <__lockfile+0x9a>
  404235:	53                   	push   %rbx
  404236:	45 31 c9             	xor    %r9d,%r9d
  404239:	bb ca 00 00 00       	mov    $0xca,%ebx
  40423e:	eb 11                	jmp    404251 <__lockfile+0x5a>
  404240:	b8 01 00 00 00       	mov    $0x1,%eax
  404245:	5b                   	pop    %rbx
  404246:	c3                   	ret
  404247:	89 c8                	mov    %ecx,%eax
  404249:	f0 0f b1 17          	lock cmpxchg %edx,(%rdi)
  40424d:	39 c8                	cmp    %ecx,%eax
  40424f:	74 1e                	je     40426f <__lockfile+0x78>
  404251:	44 89 c8             	mov    %r9d,%eax
  404254:	f0 44 0f b1 07       	lock cmpxchg %r8d,(%rdi)
  404259:	89 c1                	mov    %eax,%ecx
  40425b:	85 c0                	test   %eax,%eax
  40425d:	74 e1                	je     404240 <__lockfile+0x49>
  40425f:	89 ca                	mov    %ecx,%edx
  404261:	81 ca 00 00 00 40    	or     $0x40000000,%edx
  404267:	f7 c1 00 00 00 40    	test   $0x40000000,%ecx
  40426d:	74 d8                	je     404247 <__lockfile+0x50>
  40426f:	48 63 d2             	movslq %edx,%rdx
  404272:	45 31 d2             	xor    %r10d,%r10d
  404275:	48 89 d8             	mov    %rbx,%rax
  404278:	be 80 00 00 00       	mov    $0x80,%esi
  40427d:	0f 05                	syscall
  40427f:	48 83 f8 da          	cmp    $0xffffffffffffffda,%rax
  404283:	75 cc                	jne    404251 <__lockfile+0x5a>
  404285:	45 31 d2             	xor    %r10d,%r10d
  404288:	31 f6                	xor    %esi,%esi
  40428a:	48 89 d8             	mov    %rbx,%rax
  40428d:	0f 05                	syscall
  40428f:	eb c0                	jmp    404251 <__lockfile+0x5a>
  404291:	b8 01 00 00 00       	mov    $0x1,%eax
  404296:	c3                   	ret

0000000000404297 <__unlockfile>:
  404297:	48 89 fa             	mov    %rdi,%rdx
  40429a:	31 c0                	xor    %eax,%eax
  40429c:	48 8d bf 8c 00 00 00 	lea    0x8c(%rdi),%rdi
  4042a3:	87 82 8c 00 00 00    	xchg   %eax,0x8c(%rdx)
  4042a9:	a9 00 00 00 40       	test   $0x40000000,%eax
  4042ae:	74 1b                	je     4042cb <__unlockfile+0x34>
  4042b0:	41 b8 ca 00 00 00    	mov    $0xca,%r8d
  4042b6:	be 81 00 00 00       	mov    $0x81,%esi
  4042bb:	ba 01 00 00 00       	mov    $0x1,%edx
  4042c0:	4c 89 c0             	mov    %r8,%rax
  4042c3:	0f 05                	syscall
  4042c5:	48 83 f8 da          	cmp    $0xffffffffffffffda,%rax
  4042c9:	74 01                	je     4042cc <__unlockfile+0x35>
  4042cb:	c3                   	ret
  4042cc:	4c 89 c0             	mov    %r8,%rax
  4042cf:	be 01 00 00 00       	mov    $0x1,%esi
  4042d4:	0f 05                	syscall
  4042d6:	c3                   	ret

00000000004042d7 <__overflow>:
  4042d7:	53                   	push   %rbx
  4042d8:	48 83 ec 10          	sub    $0x10,%rsp
  4042dc:	48 8b 47 20          	mov    0x20(%rdi),%rax
  4042e0:	64 48 8b 1c 25 28 00 	mov    %fs:0x28,%rbx
  4042e7:	00 00 
  4042e9:	48 89 5c 24 08       	mov    %rbx,0x8(%rsp)
  4042ee:	48 89 fb             	mov    %rdi,%rbx
  4042f1:	40 88 74 24 07       	mov    %sil,0x7(%rsp)
  4042f6:	48 85 c0             	test   %rax,%rax
  4042f9:	74 22                	je     40431d <__overflow+0x46>
  4042fb:	48 8b 53 28          	mov    0x28(%rbx),%rdx
  4042ff:	48 39 c2             	cmp    %rax,%rdx
  404302:	74 32                	je     404336 <__overflow+0x5f>
  404304:	0f b6 44 24 07       	movzbl 0x7(%rsp),%eax
  404309:	3b 83 90 00 00 00    	cmp    0x90(%rbx),%eax
  40430f:	74 25                	je     404336 <__overflow+0x5f>
  404311:	48 8d 72 01          	lea    0x1(%rdx),%rsi
  404315:	48 89 73 28          	mov    %rsi,0x28(%rbx)
  404319:	88 02                	mov    %al,(%rdx)
  40431b:	eb 34                	jmp    404351 <__overflow+0x7a>
  40431d:	48 89 df             	mov    %rbx,%rdi
  404320:	e8 eb 00 00 00       	call   404410 <__towrite>
  404325:	85 c0                	test   %eax,%eax
  404327:	75 06                	jne    40432f <__overflow+0x58>
  404329:	48 8b 43 20          	mov    0x20(%rbx),%rax
  40432d:	eb cc                	jmp    4042fb <__overflow+0x24>
  40432f:	b8 ff ff ff ff       	mov    $0xffffffff,%eax
  404334:	eb 1b                	jmp    404351 <__overflow+0x7a>
  404336:	48 8d 74 24 07       	lea    0x7(%rsp),%rsi
  40433b:	ba 01 00 00 00       	mov    $0x1,%edx
  404340:	48 89 df             	mov    %rbx,%rdi
  404343:	ff 53 48             	call   *0x48(%rbx)
  404346:	48 83 f8 01          	cmp    $0x1,%rax
  40434a:	75 e3                	jne    40432f <__overflow+0x58>
  40434c:	0f b6 44 24 07       	movzbl 0x7(%rsp),%eax
  404351:	48 8b 54 24 08       	mov    0x8(%rsp),%rdx
  404356:	64 48 2b 14 25 28 00 	sub    %fs:0x28,%rdx
  40435d:	00 00 
  40435f:	75 06                	jne    404367 <__overflow+0x90>
  404361:	48 83 c4 10          	add    $0x10,%rsp
  404365:	5b                   	pop    %rbx
  404366:	c3                   	ret
  404367:	e8 0b fd ff ff       	call   404077 <__stack_chk_fail>

000000000040436c <__aio_close>:
  40436c:	89 f8                	mov    %edi,%eax
  40436e:	c3                   	ret

000000000040436f <__stdio_close>:
  40436f:	48 83 ec 08          	sub    $0x8,%rsp
  404373:	8b 7f 78             	mov    0x78(%rdi),%edi
  404376:	e8 f1 ff ff ff       	call   40436c <__aio_close>
  40437b:	48 63 f8             	movslq %eax,%rdi
  40437e:	b8 03 00 00 00       	mov    $0x3,%eax
  404383:	0f 05                	syscall
  404385:	48 89 c7             	mov    %rax,%rdi
  404388:	e8 59 04 00 00       	call   4047e6 <__syscall_ret>
  40438d:	48 83 c4 08          	add    $0x8,%rsp
  404391:	c3                   	ret

0000000000404392 <__stdio_seek>:
  404392:	8b 7f 78             	mov    0x78(%rdi),%edi
  404395:	e9 37 04 00 00       	jmp    4047d1 <__lseek>

000000000040439a <__stdout_write>:
  40439a:	48 83 ec 18          	sub    $0x18,%rsp
  40439e:	48 8d 05 0e 06 00 00 	lea    0x60e(%rip),%rax        # 4049b3 <__stdio_write>
  4043a5:	49 89 f8             	mov    %rdi,%r8
  4043a8:	49 89 f1             	mov    %rsi,%r9
  4043ab:	64 4c 8b 14 25 28 00 	mov    %fs:0x28,%r10
  4043b2:	00 00 
  4043b4:	4c 89 54 24 08       	mov    %r10,0x8(%rsp)
  4043b9:	49 89 d2             	mov    %rdx,%r10
  4043bc:	48 89 47 48          	mov    %rax,0x48(%rdi)
  4043c0:	f6 07 40             	testb  $0x40,(%rdi)
  4043c3:	75 23                	jne    4043e8 <__stdout_write+0x4e>
  4043c5:	48 63 7f 78          	movslq 0x78(%rdi),%rdi
  4043c9:	48 89 e2             	mov    %rsp,%rdx
  4043cc:	b8 10 00 00 00       	mov    $0x10,%eax
  4043d1:	be 13 54 00 00       	mov    $0x5413,%esi
  4043d6:	0f 05                	syscall
  4043d8:	48 85 c0             	test   %rax,%rax
  4043db:	74 0b                	je     4043e8 <__stdout_write+0x4e>
  4043dd:	41 c7 80 90 00 00 00 	movl   $0xffffffff,0x90(%r8)
  4043e4:	ff ff ff ff 
  4043e8:	4c 89 d2             	mov    %r10,%rdx
  4043eb:	4c 89 ce             	mov    %r9,%rsi
  4043ee:	4c 89 c7             	mov    %r8,%rdi
  4043f1:	e8 bd 05 00 00       	call   4049b3 <__stdio_write>
  4043f6:	48 8b 54 24 08       	mov    0x8(%rsp),%rdx
  4043fb:	64 48 2b 14 25 28 00 	sub    %fs:0x28,%rdx
  404402:	00 00 
  404404:	75 05                	jne    40440b <__stdout_write+0x71>
  404406:	48 83 c4 18          	add    $0x18,%rsp
  40440a:	c3                   	ret
  40440b:	e8 67 fc ff ff       	call   404077 <__stack_chk_fail>

0000000000404410 <__towrite>:
  404410:	8b 97 88 00 00 00    	mov    0x88(%rdi),%edx
  404416:	8d 42 ff             	lea    -0x1(%rdx),%eax
  404419:	09 d0                	or     %edx,%eax
  40441b:	89 87 88 00 00 00    	mov    %eax,0x88(%rdi)
  404421:	8b 07                	mov    (%rdi),%eax
  404423:	a8 08                	test   $0x8,%al
  404425:	75 2c                	jne    404453 <__towrite+0x43>
  404427:	48 8b 47 58          	mov    0x58(%rdi),%rax
  40442b:	48 8b 4f 60          	mov    0x60(%rdi),%rcx
  40442f:	66 0f ef c0          	pxor   %xmm0,%xmm0
  404433:	0f 11 47 08          	movups %xmm0,0x8(%rdi)
  404437:	48 01 c1             	add    %rax,%rcx
  40443a:	66 48 0f 6e c8       	movq   %rax,%xmm1
  40443f:	48 89 47 38          	mov    %rax,0x38(%rdi)
  404443:	31 c0                	xor    %eax,%eax
  404445:	66 48 0f 6e c1       	movq   %rcx,%xmm0
  40444a:	66 0f 6c c1          	punpcklqdq %xmm1,%xmm0
  40444e:	0f 11 47 20          	movups %xmm0,0x20(%rdi)
  404452:	c3                   	ret
  404453:	83 c8 20             	or     $0x20,%eax
  404456:	89 07                	mov    %eax,(%rdi)
  404458:	b8 ff ff ff ff       	mov    $0xffffffff,%eax
  40445d:	c3                   	ret

000000000040445e <__towrite_needs_stdio_exit>:
  40445e:	e9 0f 05 00 00       	jmp    404972 <__stdio_exit>

0000000000404463 <fputs>:
  404463:	41 54                	push   %r12
  404465:	49 89 f4             	mov    %rsi,%r12
  404468:	55                   	push   %rbp
  404469:	48 89 fd             	mov    %rdi,%rbp
  40446c:	53                   	push   %rbx
  40446d:	e8 8e 02 00 00       	call   404700 <strlen>
  404472:	4c 89 e1             	mov    %r12,%rcx
  404475:	48 89 ef             	mov    %rbp,%rdi
  404478:	be 01 00 00 00       	mov    $0x1,%esi
  40447d:	48 89 c2             	mov    %rax,%rdx
  404480:	48 89 c3             	mov    %rax,%rbx
  404483:	e8 d2 00 00 00       	call   40455a <fwrite>
  404488:	48 39 d8             	cmp    %rbx,%rax
  40448b:	5b                   	pop    %rbx
  40448c:	5d                   	pop    %rbp
  40448d:	0f 95 c0             	setne  %al
  404490:	41 5c                	pop    %r12
  404492:	0f b6 c0             	movzbl %al,%eax
  404495:	f7 d8                	neg    %eax
  404497:	c3                   	ret
  404498:	0f 1f 84 00 00 00 00 	nopl   0x0(%rax,%rax,1)
  40449f:	00 

00000000004044a0 <__fwritex>:
  4044a0:	41 56                	push   %r14
  4044a2:	41 55                	push   %r13
  4044a4:	49 89 f5             	mov    %rsi,%r13
  4044a7:	41 54                	push   %r12
  4044a9:	49 89 d4             	mov    %rdx,%r12
  4044ac:	55                   	push   %rbp
  4044ad:	48 89 fd             	mov    %rdi,%rbp
  4044b0:	53                   	push   %rbx
  4044b1:	48 8b 42 20          	mov    0x20(%rdx),%rax
  4044b5:	48 85 c0             	test   %rax,%rax
  4044b8:	74 3b                	je     4044f5 <__fwritex+0x55>
  4044ba:	49 8b 7c 24 28       	mov    0x28(%r12),%rdi
  4044bf:	48 29 f8             	sub    %rdi,%rax
  4044c2:	4c 39 e8             	cmp    %r13,%rax
  4044c5:	72 41                	jb     404508 <__fwritex+0x68>
  4044c7:	41 8b 84 24 90 00 00 	mov    0x90(%r12),%eax
  4044ce:	00 
  4044cf:	4c 89 eb             	mov    %r13,%rbx
  4044d2:	85 c0                	test   %eax,%eax
  4044d4:	79 4d                	jns    404523 <__fwritex+0x83>
  4044d6:	4d 89 ee             	mov    %r13,%r14
  4044d9:	4c 89 f2             	mov    %r14,%rdx
  4044dc:	48 89 ee             	mov    %rbp,%rsi
  4044df:	e8 89 02 00 00       	call   40476d <memcpy>
  4044e4:	4d 01 74 24 28       	add    %r14,0x28(%r12)
  4044e9:	4c 89 e8             	mov    %r13,%rax
  4044ec:	5b                   	pop    %rbx
  4044ed:	5d                   	pop    %rbp
  4044ee:	41 5c                	pop    %r12
  4044f0:	41 5d                	pop    %r13
  4044f2:	41 5e                	pop    %r14
  4044f4:	c3                   	ret
  4044f5:	48 89 d7             	mov    %rdx,%rdi
  4044f8:	e8 13 ff ff ff       	call   404410 <__towrite>
  4044fd:	85 c0                	test   %eax,%eax
  4044ff:	75 55                	jne    404556 <__fwritex+0xb6>
  404501:	49 8b 44 24 20       	mov    0x20(%r12),%rax
  404506:	eb b2                	jmp    4044ba <__fwritex+0x1a>
  404508:	5b                   	pop    %rbx
  404509:	49 8b 44 24 48       	mov    0x48(%r12),%rax
  40450e:	4c 89 ea             	mov    %r13,%rdx
  404511:	48 89 ee             	mov    %rbp,%rsi
  404514:	4c 89 e7             	mov    %r12,%rdi
  404517:	5d                   	pop    %rbp
  404518:	41 5c                	pop    %r12
  40451a:	41 5d                	pop    %r13
  40451c:	41 5e                	pop    %r14
  40451e:	ff e0                	jmp    *%rax
  404520:	48 89 c3             	mov    %rax,%rbx
  404523:	48 85 db             	test   %rbx,%rbx
  404526:	74 ae                	je     4044d6 <__fwritex+0x36>
  404528:	80 7c 1d ff 0a       	cmpb   $0xa,-0x1(%rbp,%rbx,1)
  40452d:	48 8d 43 ff          	lea    -0x1(%rbx),%rax
  404531:	75 ed                	jne    404520 <__fwritex+0x80>
  404533:	48 89 da             	mov    %rbx,%rdx
  404536:	48 89 ee             	mov    %rbp,%rsi
  404539:	4c 89 e7             	mov    %r12,%rdi
  40453c:	41 ff 54 24 48       	call   *0x48(%r12)
  404541:	48 39 d8             	cmp    %rbx,%rax
  404544:	72 a6                	jb     4044ec <__fwritex+0x4c>
  404546:	4d 89 ee             	mov    %r13,%r14
  404549:	49 8b 7c 24 28       	mov    0x28(%r12),%rdi
  40454e:	48 01 dd             	add    %rbx,%rbp
  404551:	49 29 de             	sub    %rbx,%r14
  404554:	eb 83                	jmp    4044d9 <__fwritex+0x39>
  404556:	31 c0                	xor    %eax,%eax
  404558:	eb 92                	jmp    4044ec <__fwritex+0x4c>

000000000040455a <fwrite>:
  40455a:	41 57                	push   %r15
  40455c:	31 c0                	xor    %eax,%eax
  40455e:	41 56                	push   %r14
  404560:	49 89 f6             	mov    %rsi,%r14
  404563:	41 55                	push   %r13
  404565:	4c 0f af f2          	imul   %rdx,%r14
  404569:	49 89 fd             	mov    %rdi,%r13
  40456c:	41 54                	push   %r12
  40456e:	49 89 cc             	mov    %rcx,%r12
  404571:	55                   	push   %rbp
  404572:	48 89 f5             	mov    %rsi,%rbp
  404575:	53                   	push   %rbx
  404576:	48 83 ec 08          	sub    $0x8,%rsp
  40457a:	48 85 f6             	test   %rsi,%rsi
  40457d:	48 0f 45 c2          	cmovne %rdx,%rax
  404581:	48 89 c3             	mov    %rax,%rbx
  404584:	8b 81 8c 00 00 00    	mov    0x8c(%rcx),%eax
  40458a:	85 c0                	test   %eax,%eax
  40458c:	79 30                	jns    4045be <fwrite+0x64>
  40458e:	48 89 ca             	mov    %rcx,%rdx
  404591:	4c 89 f6             	mov    %r14,%rsi
  404594:	e8 07 ff ff ff       	call   4044a0 <__fwritex>
  404599:	49 89 c5             	mov    %rax,%r13
  40459c:	4d 39 ee             	cmp    %r13,%r14
  40459f:	74 0b                	je     4045ac <fwrite+0x52>
  4045a1:	4c 89 e8             	mov    %r13,%rax
  4045a4:	31 d2                	xor    %edx,%edx
  4045a6:	48 f7 f5             	div    %rbp
  4045a9:	48 89 c3             	mov    %rax,%rbx
  4045ac:	48 83 c4 08          	add    $0x8,%rsp
  4045b0:	48 89 d8             	mov    %rbx,%rax
  4045b3:	5b                   	pop    %rbx
  4045b4:	5d                   	pop    %rbp
  4045b5:	41 5c                	pop    %r12
  4045b7:	41 5d                	pop    %r13
  4045b9:	41 5e                	pop    %r14
  4045bb:	41 5f                	pop    %r15
  4045bd:	c3                   	ret
  4045be:	48 89 cf             	mov    %rcx,%rdi
  4045c1:	e8 31 fc ff ff       	call   4041f7 <__lockfile>
  4045c6:	4c 89 ef             	mov    %r13,%rdi
  4045c9:	4c 89 e2             	mov    %r12,%rdx
  4045cc:	4c 89 f6             	mov    %r14,%rsi
  4045cf:	41 89 c7             	mov    %eax,%r15d
  4045d2:	e8 c9 fe ff ff       	call   4044a0 <__fwritex>
  4045d7:	49 89 c5             	mov    %rax,%r13
  4045da:	45 85 ff             	test   %r15d,%r15d
  4045dd:	74 bd                	je     40459c <fwrite+0x42>
  4045df:	4c 89 e7             	mov    %r12,%rdi
  4045e2:	e8 b0 fc ff ff       	call   404297 <__unlockfile>
  4045e7:	eb b3                	jmp    40459c <fwrite+0x42>
  4045e9:	66 2e 0f 1f 84 00 00 	cs nopw 0x0(%rax,%rax,1)
  4045f0:	00 00 00 
  4045f3:	66 2e 0f 1f 84 00 00 	cs nopw 0x0(%rax,%rax,1)
  4045fa:	00 00 00 
  4045fd:	0f 1f 00             	nopl   (%rax)

0000000000404600 <memchr>:
  404600:	48 89 f9             	mov    %rdi,%rcx
  404603:	40 0f b6 f6          	movzbl %sil,%esi
  404607:	eb 08                	jmp    404611 <memchr+0x11>
  404609:	48 83 c1 01          	add    $0x1,%rcx
  40460d:	48 83 ea 01          	sub    $0x1,%rdx
  404611:	f6 c1 07             	test   $0x7,%cl
  404614:	74 4d                	je     404663 <memchr+0x63>
  404616:	48 85 d2             	test   %rdx,%rdx
  404619:	0f 84 d6 00 00 00    	je     4046f5 <memchr+0xf5>
  40461f:	0f b6 01             	movzbl (%rcx),%eax
  404622:	39 f0                	cmp    %esi,%eax
  404624:	75 e3                	jne    404609 <memchr+0x9>
  404626:	0f b6 01             	movzbl (%rcx),%eax
  404629:	39 f0                	cmp    %esi,%eax
  40462b:	74 3e                	je     40466b <memchr+0x6b>
  40462d:	48 b8 01 01 01 01 01 	movabs $0x101010101010101,%rax
  404634:	01 01 01 
  404637:	4c 63 ce             	movslq %esi,%r9
  40463a:	53                   	push   %rbx
  40463b:	4c 8d 14 11          	lea    (%rcx,%rdx,1),%r10
  40463f:	48 bb ff fe fe fe fe 	movabs $0xfefefefefefefeff,%rbx
  404646:	fe fe fe 
  404649:	4c 0f af c8          	imul   %rax,%r9
  40464d:	48 89 d0             	mov    %rdx,%rax
  404650:	49 bb 80 80 80 80 80 	movabs $0x8080808080808080,%r11
  404657:	80 80 80 
  40465a:	48 83 e0 f8          	and    $0xfffffffffffffff8,%rax
  40465e:	48 01 c8             	add    %rcx,%rax
  404661:	eb 21                	jmp    404684 <memchr+0x84>
  404663:	31 c0                	xor    %eax,%eax
  404665:	48 85 d2             	test   %rdx,%rdx
  404668:	75 bc                	jne    404626 <memchr+0x26>
  40466a:	c3                   	ret
  40466b:	48 89 c8             	mov    %rcx,%rax
  40466e:	eb 78                	jmp    4046e8 <memchr+0xe8>
  404670:	66 66 2e 0f 1f 84 00 	data16 cs nopw 0x0(%rax,%rax,1)
  404677:	00 00 00 00 
  40467b:	0f 1f 44 00 00       	nopl   0x0(%rax,%rax,1)
  404680:	48 83 c1 08          	add    $0x8,%rcx
  404684:	4c 89 d2             	mov    %r10,%rdx
  404687:	48 29 ca             	sub    %rcx,%rdx
  40468a:	48 39 c1             	cmp    %rax,%rcx
  40468d:	74 39                	je     4046c8 <memchr+0xc8>
  40468f:	48 8b 39             	mov    (%rcx),%rdi
  404692:	4c 31 cf             	xor    %r9,%rdi
  404695:	4c 8d 04 1f          	lea    (%rdi,%rbx,1),%r8
  404699:	48 f7 d7             	not    %rdi
  40469c:	4c 21 c7             	and    %r8,%rdi
  40469f:	4c 85 df             	test   %r11,%rdi
  4046a2:	74 dc                	je     404680 <memchr+0x80>
  4046a4:	48 89 c8             	mov    %rcx,%rax
  4046a7:	eb 1f                	jmp    4046c8 <memchr+0xc8>
  4046a9:	66 66 2e 0f 1f 84 00 	data16 cs nopw 0x0(%rax,%rax,1)
  4046b0:	00 00 00 00 
  4046b4:	66 66 2e 0f 1f 84 00 	data16 cs nopw 0x0(%rax,%rax,1)
  4046bb:	00 00 00 00 
  4046bf:	90                   	nop
  4046c0:	48 83 c0 01          	add    $0x1,%rax
  4046c4:	48 83 ea 01          	sub    $0x1,%rdx
  4046c8:	48 85 d2             	test   %rdx,%rdx
  4046cb:	74 09                	je     4046d6 <memchr+0xd6>
  4046cd:	0f b6 08             	movzbl (%rax),%ecx
  4046d0:	39 f1                	cmp    %esi,%ecx
  4046d2:	75 ec                	jne    4046c0 <memchr+0xc0>
  4046d4:	5b                   	pop    %rbx
  4046d5:	c3                   	ret
  4046d6:	31 c0                	xor    %eax,%eax
  4046d8:	eb fa                	jmp    4046d4 <memchr+0xd4>
  4046da:	66 0f 1f 44 00 00    	nopw   0x0(%rax,%rax,1)
  4046e0:	48 83 c0 01          	add    $0x1,%rax
  4046e4:	48 83 ea 01          	sub    $0x1,%rdx
  4046e8:	48 85 d2             	test   %rdx,%rdx
  4046eb:	74 08                	je     4046f5 <memchr+0xf5>
  4046ed:	0f b6 08             	movzbl (%rax),%ecx
  4046f0:	39 f1                	cmp    %esi,%ecx
  4046f2:	75 ec                	jne    4046e0 <memchr+0xe0>
  4046f4:	c3                   	ret
  4046f5:	31 c0                	xor    %eax,%eax
  4046f7:	c3                   	ret
  4046f8:	0f 1f 84 00 00 00 00 	nopl   0x0(%rax,%rax,1)
  4046ff:	00 

0000000000404700 <strlen>:
  404700:	48 89 f8             	mov    %rdi,%rax
  404703:	eb 0f                	jmp    404714 <strlen+0x14>
  404705:	66 66 2e 0f 1f 84 00 	data16 cs nopw 0x0(%rax,%rax,1)
  40470c:	00 00 00 00 
  404710:	48 83 c0 01          	add    $0x1,%rax
  404714:	a8 07                	test   $0x7,%al
  404716:	74 07                	je     40471f <strlen+0x1f>
  404718:	80 38 00             	cmpb   $0x0,(%rax)
  40471b:	75 f3                	jne    404710 <strlen+0x10>
  40471d:	eb 4a                	jmp    404769 <strlen+0x69>
  40471f:	49 b8 ff fe fe fe fe 	movabs $0xfefefefefefefeff,%r8
  404726:	fe fe fe 
  404729:	48 be 80 80 80 80 80 	movabs $0x8080808080808080,%rsi
  404730:	80 80 80 
  404733:	eb 0f                	jmp    404744 <strlen+0x44>
  404735:	66 66 2e 0f 1f 84 00 	data16 cs nopw 0x0(%rax,%rax,1)
  40473c:	00 00 00 00 
  404740:	48 83 c0 08          	add    $0x8,%rax
  404744:	48 8b 10             	mov    (%rax),%rdx
  404747:	4a 8d 0c 02          	lea    (%rdx,%r8,1),%rcx
  40474b:	48 f7 d2             	not    %rdx
  40474e:	48 21 ca             	and    %rcx,%rdx
  404751:	48 85 f2             	test   %rsi,%rdx
  404754:	74 ea                	je     404740 <strlen+0x40>
  404756:	eb 0c                	jmp    404764 <strlen+0x64>
  404758:	0f 1f 84 00 00 00 00 	nopl   0x0(%rax,%rax,1)
  40475f:	00 
  404760:	48 83 c0 01          	add    $0x1,%rax
  404764:	80 38 00             	cmpb   $0x0,(%rax)
  404767:	75 f7                	jne    404760 <strlen+0x60>
  404769:	48 29 f8             	sub    %rdi,%rax
  40476c:	c3                   	ret

000000000040476d <memcpy>:
  40476d:	48 89 f8             	mov    %rdi,%rax
  404770:	48 83 fa 08          	cmp    $0x8,%rdx
  404774:	72 14                	jb     40478a <memcpy+0x1d>
  404776:	f7 c7 07 00 00 00    	test   $0x7,%edi
  40477c:	74 0c                	je     40478a <memcpy+0x1d>
  40477e:	a4                   	movsb  %ds:(%rsi),%es:(%rdi)
  40477f:	48 ff ca             	dec    %rdx
  404782:	f7 c7 07 00 00 00    	test   $0x7,%edi
  404788:	75 f4                	jne    40477e <memcpy+0x11>
  40478a:	48 89 d1             	mov    %rdx,%rcx
  40478d:	48 c1 e9 03          	shr    $0x3,%rcx
  404791:	f3 48 a5             	rep movsq %ds:(%rsi),%es:(%rdi)
  404794:	83 e2 07             	and    $0x7,%edx
  404797:	74 05                	je     40479e <memcpy+0x31>
  404799:	a4                   	movsb  %ds:(%rsi),%es:(%rdi)
  40479a:	ff ca                	dec    %edx
  40479c:	75 fb                	jne    404799 <memcpy+0x2c>
  40479e:	c3                   	ret

000000000040479f <__set_thread_area>:
  40479f:	48 89 fe             	mov    %rdi,%rsi
  4047a2:	bf 02 10 00 00       	mov    $0x1002,%edi
  4047a7:	b8 9e 00 00 00       	mov    $0x9e,%eax
  4047ac:	0f 05                	syscall
  4047ae:	c3                   	ret

00000000004047af <nanosleep>:
  4047af:	48 83 ec 08          	sub    $0x8,%rsp
  4047b3:	48 89 fa             	mov    %rdi,%rdx
  4047b6:	48 89 f1             	mov    %rsi,%rcx
  4047b9:	31 ff                	xor    %edi,%edi
  4047bb:	31 f6                	xor    %esi,%esi
  4047bd:	e8 2b 04 00 00       	call   404bed <__clock_nanosleep>
  4047c2:	f7 d8                	neg    %eax
  4047c4:	48 63 f8             	movslq %eax,%rdi
  4047c7:	e8 1a 00 00 00       	call   4047e6 <__syscall_ret>
  4047cc:	48 83 c4 08          	add    $0x8,%rsp
  4047d0:	c3                   	ret

00000000004047d1 <__lseek>:
  4047d1:	48 63 ff             	movslq %edi,%rdi
  4047d4:	48 63 d2             	movslq %edx,%rdx
  4047d7:	b8 08 00 00 00       	mov    $0x8,%eax
  4047dc:	0f 05                	syscall
  4047de:	48 89 c7             	mov    %rax,%rdi
  4047e1:	e9 00 00 00 00       	jmp    4047e6 <__syscall_ret>

00000000004047e6 <__syscall_ret>:
  4047e6:	48 81 ff 00 f0 ff ff 	cmp    $0xfffffffffffff000,%rdi
  4047ed:	77 04                	ja     4047f3 <__syscall_ret+0xd>
  4047ef:	48 89 f8             	mov    %rdi,%rax
  4047f2:	c3                   	ret
  4047f3:	48 83 ec 18          	sub    $0x18,%rsp
  4047f7:	48 89 7c 24 08       	mov    %rdi,0x8(%rsp)
  4047fc:	e8 78 f8 ff ff       	call   404079 <__errno_location>
  404801:	48 8b 7c 24 08       	mov    0x8(%rsp),%rdi
  404806:	f7 df                	neg    %edi
  404808:	89 38                	mov    %edi,(%rax)
  40480a:	48 c7 c0 ff ff ff ff 	mov    $0xffffffffffffffff,%rax
  404811:	48 83 c4 18          	add    $0x18,%rsp
  404815:	c3                   	ret

0000000000404816 <wcrtomb>:
  404816:	48 85 ff             	test   %rdi,%rdi
  404819:	0f 84 fd 00 00 00    	je     40491c <wcrtomb+0x106>
  40481f:	48 89 fa             	mov    %rdi,%rdx
  404822:	89 f0                	mov    %esi,%eax
  404824:	83 fe 7f             	cmp    $0x7f,%esi
  404827:	0f 86 ec 00 00 00    	jbe    404919 <wcrtomb+0x103>
  40482d:	48 83 ec 08          	sub    $0x8,%rsp
  404831:	64 48 8b 0c 25 00 00 	mov    %fs:0x0,%rcx
  404838:	00 00 
  40483a:	48 8b 89 a8 00 00 00 	mov    0xa8(%rcx),%rcx
  404841:	48 83 39 00          	cmpq   $0x0,(%rcx)
  404845:	74 40                	je     404887 <wcrtomb+0x71>
  404847:	81 fe ff 07 00 00    	cmp    $0x7ff,%esi
  40484d:	76 4f                	jbe    40489e <wcrtomb+0x88>
  40484f:	8d 8e 00 20 ff ff    	lea    -0xe000(%rsi),%ecx
  404855:	81 f9 ff 1f 00 00    	cmp    $0x1fff,%ecx
  40485b:	76 5b                	jbe    4048b8 <wcrtomb+0xa2>
  40485d:	81 fe ff d7 00 00    	cmp    $0xd7ff,%esi
  404863:	76 53                	jbe    4048b8 <wcrtomb+0xa2>
  404865:	8d 8e 00 00 ff ff    	lea    -0x10000(%rsi),%ecx
  40486b:	81 f9 ff ff 0f 00    	cmp    $0xfffff,%ecx
  404871:	76 6d                	jbe    4048e0 <wcrtomb+0xca>
  404873:	e8 01 f8 ff ff       	call   404079 <__errno_location>
  404878:	c7 00 54 00 00 00    	movl   $0x54,(%rax)
  40487e:	48 c7 c0 ff ff ff ff 	mov    $0xffffffffffffffff,%rax
  404885:	eb 12                	jmp    404899 <wcrtomb+0x83>
  404887:	8d 8e 80 20 ff ff    	lea    -0xdf80(%rsi),%ecx
  40488d:	83 f9 7f             	cmp    $0x7f,%ecx
  404890:	77 e1                	ja     404873 <wcrtomb+0x5d>
  404892:	88 02                	mov    %al,(%rdx)
  404894:	b8 01 00 00 00       	mov    $0x1,%eax
  404899:	48 83 c4 08          	add    $0x8,%rsp
  40489d:	c3                   	ret
  40489e:	89 f1                	mov    %esi,%ecx
  4048a0:	83 e0 3f             	and    $0x3f,%eax
  4048a3:	c1 f9 06             	sar    $0x6,%ecx
  4048a6:	83 c8 80             	or     $0xffffff80,%eax
  4048a9:	83 c9 c0             	or     $0xffffffc0,%ecx
  4048ac:	88 47 01             	mov    %al,0x1(%rdi)
  4048af:	b8 02 00 00 00       	mov    $0x2,%eax
  4048b4:	88 0f                	mov    %cl,(%rdi)
  4048b6:	eb e1                	jmp    404899 <wcrtomb+0x83>
  4048b8:	89 c1                	mov    %eax,%ecx
  4048ba:	c1 f9 0c             	sar    $0xc,%ecx
  4048bd:	83 c9 e0             	or     $0xffffffe0,%ecx
  4048c0:	88 0a                	mov    %cl,(%rdx)
  4048c2:	89 c1                	mov    %eax,%ecx
  4048c4:	83 e0 3f             	and    $0x3f,%eax
  4048c7:	c1 f9 06             	sar    $0x6,%ecx
  4048ca:	83 c8 80             	or     $0xffffff80,%eax
  4048cd:	83 e1 3f             	and    $0x3f,%ecx
  4048d0:	88 42 02             	mov    %al,0x2(%rdx)
  4048d3:	b8 03 00 00 00       	mov    $0x3,%eax
  4048d8:	83 c9 80             	or     $0xffffff80,%ecx
  4048db:	88 4a 01             	mov    %cl,0x1(%rdx)
  4048de:	eb b9                	jmp    404899 <wcrtomb+0x83>
  4048e0:	89 c7                	mov    %eax,%edi
  4048e2:	83 e0 3f             	and    $0x3f,%eax
  4048e5:	89 f1                	mov    %esi,%ecx
  4048e7:	c1 fe 0c             	sar    $0xc,%esi
  4048ea:	c1 ff 06             	sar    $0x6,%edi
  4048ed:	c1 e0 08             	shl    $0x8,%eax
  4048f0:	83 e6 3f             	and    $0x3f,%esi
  4048f3:	83 e7 3f             	and    $0x3f,%edi
  4048f6:	c1 f9 12             	sar    $0x12,%ecx
  4048f9:	09 f8                	or     %edi,%eax
  4048fb:	0f b6 c9             	movzbl %cl,%ecx
  4048fe:	c1 e0 08             	shl    $0x8,%eax
  404901:	09 f0                	or     %esi,%eax
  404903:	8b 35 c7 0a 00 00    	mov    0xac7(%rip),%esi        # 4053d0 <states+0x1f0>
  404909:	c1 e0 08             	shl    $0x8,%eax
  40490c:	09 c8                	or     %ecx,%eax
  40490e:	09 f0                	or     %esi,%eax
  404910:	89 02                	mov    %eax,(%rdx)
  404912:	b8 04 00 00 00       	mov    $0x4,%eax
  404917:	eb 80                	jmp    404899 <wcrtomb+0x83>
  404919:	40 88 32             	mov    %sil,(%rdx)
  40491c:	b8 01 00 00 00       	mov    $0x1,%eax
  404921:	c3                   	ret

0000000000404922 <close_file>:
  404922:	48 85 ff             	test   %rdi,%rdi
  404925:	74 4a                	je     404971 <close_file+0x4f>
  404927:	53                   	push   %rbx
  404928:	8b 87 8c 00 00 00    	mov    0x8c(%rdi),%eax
  40492e:	48 89 fb             	mov    %rdi,%rbx
  404931:	85 c0                	test   %eax,%eax
  404933:	79 33                	jns    404968 <close_file+0x46>
  404935:	48 8b 43 38          	mov    0x38(%rbx),%rax
  404939:	48 39 43 28          	cmp    %rax,0x28(%rbx)
  40493d:	74 0a                	je     404949 <close_file+0x27>
  40493f:	31 d2                	xor    %edx,%edx
  404941:	31 f6                	xor    %esi,%esi
  404943:	48 89 df             	mov    %rbx,%rdi
  404946:	ff 53 48             	call   *0x48(%rbx)
  404949:	48 8b 73 08          	mov    0x8(%rbx),%rsi
  40494d:	48 8b 43 10          	mov    0x10(%rbx),%rax
  404951:	48 39 c6             	cmp    %rax,%rsi
  404954:	74 19                	je     40496f <close_file+0x4d>
  404956:	48 29 c6             	sub    %rax,%rsi
  404959:	48 89 df             	mov    %rbx,%rdi
  40495c:	48 8b 43 50          	mov    0x50(%rbx),%rax
  404960:	ba 01 00 00 00       	mov    $0x1,%edx
  404965:	5b                   	pop    %rbx
  404966:	ff e0                	jmp    *%rax
  404968:	e8 8a f8 ff ff       	call   4041f7 <__lockfile>
  40496d:	eb c6                	jmp    404935 <close_file+0x13>
  40496f:	5b                   	pop    %rbx
  404970:	c3                   	ret
  404971:	c3                   	ret

0000000000404972 <__stdio_exit>:
  404972:	53                   	push   %rbx
  404973:	e8 5d 01 00 00       	call   404ad5 <__ofl_lock>
  404978:	48 8b 18             	mov    (%rax),%rbx
  40497b:	eb 0c                	jmp    404989 <__stdio_exit+0x17>
  40497d:	48 89 df             	mov    %rbx,%rdi
  404980:	e8 9d ff ff ff       	call   404922 <close_file>
  404985:	48 8b 5b 70          	mov    0x70(%rbx),%rbx
  404989:	48 85 db             	test   %rbx,%rbx
  40498c:	75 ef                	jne    40497d <__stdio_exit+0xb>
  40498e:	48 8b 3d 0b 2e 00 00 	mov    0x2e0b(%rip),%rdi        # 4077a0 <__stderr_used>
  404995:	e8 88 ff ff ff       	call   404922 <close_file>
  40499a:	48 8b 3d 6f 26 00 00 	mov    0x266f(%rip),%rdi        # 407010 <__stdout_used>
  4049a1:	e8 7c ff ff ff       	call   404922 <close_file>
  4049a6:	48 8b 3d f3 2d 00 00 	mov    0x2df3(%rip),%rdi        # 4077a0 <__stderr_used>
  4049ad:	5b                   	pop    %rbx
  4049ae:	e9 6f ff ff ff       	jmp    404922 <close_file>

00000000004049b3 <__stdio_write>:
  4049b3:	41 57                	push   %r15
  4049b5:	49 89 ff             	mov    %rdi,%r15
  4049b8:	41 56                	push   %r14
  4049ba:	41 55                	push   %r13
  4049bc:	41 54                	push   %r12
  4049be:	41 bc 14 00 00 00    	mov    $0x14,%r12d
  4049c4:	55                   	push   %rbp
  4049c5:	bd 02 00 00 00       	mov    $0x2,%ebp
  4049ca:	53                   	push   %rbx
  4049cb:	bb 02 00 00 00       	mov    $0x2,%ebx
  4049d0:	48 83 ec 48          	sub    $0x48,%rsp
  4049d4:	4c 8b 77 28          	mov    0x28(%rdi),%r14
  4049d8:	48 89 54 24 08       	mov    %rdx,0x8(%rsp)
  4049dd:	4c 8d 6c 24 10       	lea    0x10(%rsp),%r13
  4049e2:	64 48 8b 04 25 28 00 	mov    %fs:0x28,%rax
  4049e9:	00 00 
  4049eb:	48 89 44 24 38       	mov    %rax,0x38(%rsp)
  4049f0:	48 8b 47 38          	mov    0x38(%rdi),%rax
  4049f4:	48 89 74 24 20       	mov    %rsi,0x20(%rsp)
  4049f9:	48 89 54 24 28       	mov    %rdx,0x28(%rsp)
  4049fe:	49 29 c6             	sub    %rax,%r14
  404a01:	48 89 44 24 10       	mov    %rax,0x10(%rsp)
  404a06:	4c 89 74 24 18       	mov    %r14,0x18(%rsp)
  404a0b:	49 01 d6             	add    %rdx,%r14
  404a0e:	eb 7c                	jmp    404a8c <__stdio_write+0xd9>
  404a10:	49 8b 47 58          	mov    0x58(%r15),%rax
  404a14:	49 8b 4f 60          	mov    0x60(%r15),%rcx
  404a18:	48 01 c1             	add    %rax,%rcx
  404a1b:	66 48 0f 6e c8       	movq   %rax,%xmm1
  404a20:	49 89 47 38          	mov    %rax,0x38(%r15)
  404a24:	48 8b 44 24 08       	mov    0x8(%rsp),%rax
  404a29:	66 48 0f 6e c1       	movq   %rcx,%xmm0
  404a2e:	66 0f 6c c1          	punpcklqdq %xmm1,%xmm0
  404a32:	41 0f 11 47 20       	movups %xmm0,0x20(%r15)
  404a37:	48 8b 54 24 38       	mov    0x38(%rsp),%rdx
  404a3c:	64 48 2b 14 25 28 00 	sub    %fs:0x28,%rdx
  404a43:	00 00 
  404a45:	0f 85 85 00 00 00    	jne    404ad0 <__stdio_write+0x11d>
  404a4b:	48 83 c4 48          	add    $0x48,%rsp
  404a4f:	5b                   	pop    %rbx
  404a50:	5d                   	pop    %rbp
  404a51:	41 5c                	pop    %r12
  404a53:	41 5d                	pop    %r13
  404a55:	41 5e                	pop    %r14
  404a57:	41 5f                	pop    %r15
  404a59:	c3                   	ret
  404a5a:	66 0f ef c0          	pxor   %xmm0,%xmm0
  404a5e:	41 83 0f 20          	orl    $0x20,(%r15)
  404a62:	31 c0                	xor    %eax,%eax
  404a64:	49 c7 47 38 00 00 00 	movq   $0x0,0x38(%r15)
  404a6b:	00 
  404a6c:	41 0f 11 47 20       	movups %xmm0,0x20(%r15)
  404a71:	83 fd 02             	cmp    $0x2,%ebp
  404a74:	74 c1                	je     404a37 <__stdio_write+0x84>
  404a76:	48 8b 44 24 08       	mov    0x8(%rsp),%rax
  404a7b:	49 2b 45 08          	sub    0x8(%r13),%rax
  404a7f:	eb b6                	jmp    404a37 <__stdio_write+0x84>
  404a81:	48 29 c2             	sub    %rax,%rdx
  404a84:	49 01 45 00          	add    %rax,0x0(%r13)
  404a88:	49 89 55 08          	mov    %rdx,0x8(%r13)
  404a8c:	49 63 7f 78          	movslq 0x78(%r15),%rdi
  404a90:	4c 89 e0             	mov    %r12,%rax
  404a93:	4c 89 ee             	mov    %r13,%rsi
  404a96:	48 89 da             	mov    %rbx,%rdx
  404a99:	0f 05                	syscall
  404a9b:	48 89 c7             	mov    %rax,%rdi
  404a9e:	e8 43 fd ff ff       	call   4047e6 <__syscall_ret>
  404aa3:	49 39 c6             	cmp    %rax,%r14
  404aa6:	0f 84 64 ff ff ff    	je     404a10 <__stdio_write+0x5d>
  404aac:	48 85 c0             	test   %rax,%rax
  404aaf:	78 a9                	js     404a5a <__stdio_write+0xa7>
  404ab1:	49 8b 55 08          	mov    0x8(%r13),%rdx
  404ab5:	49 29 c6             	sub    %rax,%r14
  404ab8:	48 39 c2             	cmp    %rax,%rdx
  404abb:	73 c4                	jae    404a81 <__stdio_write+0xce>
  404abd:	83 ed 01             	sub    $0x1,%ebp
  404ac0:	48 29 d0             	sub    %rdx,%rax
  404ac3:	49 83 c5 10          	add    $0x10,%r13
  404ac7:	49 8b 55 08          	mov    0x8(%r13),%rdx
  404acb:	48 63 dd             	movslq %ebp,%rbx
  404ace:	eb b1                	jmp    404a81 <__stdio_write+0xce>
  404ad0:	e8 a2 f5 ff ff       	call   404077 <__stack_chk_fail>

0000000000404ad5 <__ofl_lock>:
  404ad5:	48 83 ec 08          	sub    $0x8,%rsp
  404ad9:	48 8d 3d c8 2c 00 00 	lea    0x2cc8(%rip),%rdi        # 4077a8 <ofl_lock>
  404ae0:	e8 18 00 00 00       	call   404afd <__lock>
  404ae5:	48 8d 05 c4 2c 00 00 	lea    0x2cc4(%rip),%rax        # 4077b0 <ofl_head>
  404aec:	48 83 c4 08          	add    $0x8,%rsp
  404af0:	c3                   	ret

0000000000404af1 <__ofl_unlock>:
  404af1:	48 8d 3d b0 2c 00 00 	lea    0x2cb0(%rip),%rdi        # 4077a8 <ofl_lock>
  404af8:	e9 b3 00 00 00       	jmp    404bb0 <__unlock>

0000000000404afd <__lock>:
  404afd:	0f be 0d 5f 26 00 00 	movsbl 0x265f(%rip),%ecx        # 407163 <__libc+0x3>
  404b04:	85 c9                	test   %ecx,%ecx
  404b06:	74 1a                	je     404b22 <__lock+0x25>
  404b08:	31 c0                	xor    %eax,%eax
  404b0a:	ba 01 00 00 80       	mov    $0x80000001,%edx
  404b0f:	f0 0f b1 17          	lock cmpxchg %edx,(%rdi)
  404b13:	89 c2                	mov    %eax,%edx
  404b15:	85 c9                	test   %ecx,%ecx
  404b17:	78 0a                	js     404b23 <__lock+0x26>
  404b19:	be 0b 00 00 00       	mov    $0xb,%esi
  404b1e:	85 c0                	test   %eax,%eax
  404b20:	75 20                	jne    404b42 <__lock+0x45>
  404b22:	c3                   	ret
  404b23:	c6 05 39 26 00 00 00 	movb   $0x0,0x2639(%rip)        # 407163 <__libc+0x3>
  404b2a:	eb ed                	jmp    404b19 <__lock+0x1c>
  404b2c:	8d 8a ff ff ff 7f    	lea    0x7fffffff(%rdx),%ecx
  404b32:	41 89 d0             	mov    %edx,%r8d
  404b35:	89 c8                	mov    %ecx,%eax
  404b37:	f0 44 0f b1 07       	lock cmpxchg %r8d,(%rdi)
  404b3c:	89 c2                	mov    %eax,%edx
  404b3e:	39 c1                	cmp    %eax,%ecx
  404b40:	74 e0                	je     404b22 <__lock+0x25>
  404b42:	83 ee 01             	sub    $0x1,%esi
  404b45:	74 0f                	je     404b56 <__lock+0x59>
  404b47:	85 d2                	test   %edx,%edx
  404b49:	78 e1                	js     404b2c <__lock+0x2f>
  404b4b:	44 8d 82 01 00 00 80 	lea    -0x7fffffff(%rdx),%r8d
  404b52:	89 d1                	mov    %edx,%ecx
  404b54:	eb df                	jmp    404b35 <__lock+0x38>
  404b56:	41 b8 01 00 00 00    	mov    $0x1,%r8d
  404b5c:	f0 44 0f c1 07       	lock xadd %r8d,(%rdi)
  404b61:	41 b9 ca 00 00 00    	mov    $0xca,%r9d
  404b67:	41 83 c0 01          	add    $0x1,%r8d
  404b6b:	eb 1c                	jmp    404b89 <__lock+0x8c>
  404b6d:	41 8d 90 ff ff ff 7f 	lea    0x7fffffff(%r8),%edx
  404b74:	44 8d 82 00 00 00 80 	lea    -0x80000000(%rdx),%r8d
  404b7b:	89 d0                	mov    %edx,%eax
  404b7d:	f0 44 0f b1 07       	lock cmpxchg %r8d,(%rdi)
  404b82:	41 89 c0             	mov    %eax,%r8d
  404b85:	39 c2                	cmp    %eax,%edx
  404b87:	74 99                	je     404b22 <__lock+0x25>
  404b89:	44 89 c2             	mov    %r8d,%edx
  404b8c:	45 85 c0             	test   %r8d,%r8d
  404b8f:	79 e3                	jns    404b74 <__lock+0x77>
  404b91:	49 63 d0             	movslq %r8d,%rdx
  404b94:	45 31 d2             	xor    %r10d,%r10d
  404b97:	4c 89 c8             	mov    %r9,%rax
  404b9a:	be 80 00 00 00       	mov    $0x80,%esi
  404b9f:	0f 05                	syscall
  404ba1:	48 83 f8 da          	cmp    $0xffffffffffffffda,%rax
  404ba5:	75 c6                	jne    404b6d <__lock+0x70>
  404ba7:	31 f6                	xor    %esi,%esi
  404ba9:	4c 89 c8             	mov    %r9,%rax
  404bac:	0f 05                	syscall
  404bae:	eb bd                	jmp    404b6d <__lock+0x70>

0000000000404bb0 <__unlock>:
  404bb0:	8b 07                	mov    (%rdi),%eax
  404bb2:	85 c0                	test   %eax,%eax
  404bb4:	78 01                	js     404bb7 <__unlock+0x7>
  404bb6:	c3                   	ret
  404bb7:	b8 ff ff ff 7f       	mov    $0x7fffffff,%eax
  404bbc:	f0 0f c1 07          	lock xadd %eax,(%rdi)
  404bc0:	3d 01 00 00 80       	cmp    $0x80000001,%eax
  404bc5:	74 ef                	je     404bb6 <__unlock+0x6>
  404bc7:	41 b8 ca 00 00 00    	mov    $0xca,%r8d
  404bcd:	be 81 00 00 00       	mov    $0x81,%esi
  404bd2:	ba 01 00 00 00       	mov    $0x1,%edx
  404bd7:	4c 89 c0             	mov    %r8,%rax
  404bda:	0f 05                	syscall
  404bdc:	48 83 f8 da          	cmp    $0xffffffffffffffda,%rax
  404be0:	75 d4                	jne    404bb6 <__unlock+0x6>
  404be2:	4c 89 c0             	mov    %r8,%rax
  404be5:	be 01 00 00 00       	mov    $0x1,%esi
  404bea:	0f 05                	syscall
  404bec:	c3                   	ret

0000000000404bed <__clock_nanosleep>:
  404bed:	83 ff 03             	cmp    $0x3,%edi
  404bf0:	74 5c                	je     404c4e <__clock_nanosleep+0x61>
  404bf2:	49 89 ca             	mov    %rcx,%r10
  404bf5:	89 f9                	mov    %edi,%ecx
  404bf7:	48 83 ec 08          	sub    $0x8,%rsp
  404bfb:	48 89 d0             	mov    %rdx,%rax
  404bfe:	09 f1                	or     %esi,%ecx
  404c00:	74 28                	je     404c2a <__clock_nanosleep+0x3d>
  404c02:	48 83 ec 08          	sub    $0x8,%rsp
  404c06:	48 63 d6             	movslq %esi,%rdx
  404c09:	48 89 c1             	mov    %rax,%rcx
  404c0c:	48 63 f7             	movslq %edi,%rsi
  404c0f:	6a 00                	push   $0x0
  404c11:	45 31 c9             	xor    %r9d,%r9d
  404c14:	4d 89 d0             	mov    %r10,%r8
  404c17:	bf e6 00 00 00       	mov    $0xe6,%edi
  404c1c:	e8 4d 00 00 00       	call   404c6e <__syscall_cp>
  404c21:	5a                   	pop    %rdx
  404c22:	59                   	pop    %rcx
  404c23:	f7 d8                	neg    %eax
  404c25:	48 83 c4 08          	add    $0x8,%rsp
  404c29:	c3                   	ret
  404c2a:	48 83 ec 08          	sub    $0x8,%rsp
  404c2e:	48 89 c6             	mov    %rax,%rsi
  404c31:	bf 23 00 00 00       	mov    $0x23,%edi
  404c36:	45 31 c9             	xor    %r9d,%r9d
  404c39:	6a 00                	push   $0x0
  404c3b:	45 31 c0             	xor    %r8d,%r8d
  404c3e:	31 c9                	xor    %ecx,%ecx
  404c40:	4c 89 d2             	mov    %r10,%rdx
  404c43:	e8 26 00 00 00       	call   404c6e <__syscall_cp>
  404c48:	5e                   	pop    %rsi
  404c49:	5f                   	pop    %rdi
  404c4a:	f7 d8                	neg    %eax
  404c4c:	eb d7                	jmp    404c25 <__clock_nanosleep+0x38>
  404c4e:	b8 16 00 00 00       	mov    $0x16,%eax
  404c53:	c3                   	ret

0000000000404c54 <__syscall_cp_c>:
  404c54:	48 89 f8             	mov    %rdi,%rax
  404c57:	4d 89 c2             	mov    %r8,%r10
  404c5a:	48 89 f7             	mov    %rsi,%rdi
  404c5d:	4d 89 c8             	mov    %r9,%r8
  404c60:	48 89 d6             	mov    %rdx,%rsi
  404c63:	4c 8b 4c 24 08       	mov    0x8(%rsp),%r9
  404c68:	48 89 ca             	mov    %rcx,%rdx
  404c6b:	0f 05                	syscall
  404c6d:	c3                   	ret

0000000000404c6e <__syscall_cp>:
  404c6e:	e9 e1 ff ff ff       	jmp    404c54 <__syscall_cp_c>

Disassembly of section .fini:

0000000000404c73 <_fini>:
  404c73:	50                   	push   %rax
  404c74:	58                   	pop    %rax
  404c75:	c3                   	ret
